ARM GAS  C:\Users\jsauerer\AppData\Local\Temp\ccyWZsMK.s 			page 1


   1              		.cpu cortex-m3
   2              		.eabi_attribute 20, 1
   3              		.eabi_attribute 21, 1
   4              		.eabi_attribute 23, 3
   5              		.eabi_attribute 24, 1
   6              		.eabi_attribute 25, 1
   7              		.eabi_attribute 26, 1
   8              		.eabi_attribute 30, 1
   9              		.eabi_attribute 34, 1
  10              		.eabi_attribute 18, 4
  11              		.file	"hw_gpio.c"
  12              		.text
  13              	.Ltext0:
  14              		.cfi_sections	.debug_frame
  15              		.section	.text.HW_GPIO_GetBitPos,"ax",%progbits
  16              		.align	1
  17              		.arch armv7-m
  18              		.syntax unified
  19              		.thumb
  20              		.thumb_func
  21              		.fpu softvfp
  23              	HW_GPIO_GetBitPos:
  24              	.LVL0:
  25              	.LFB116:
  26              		.file 1 "App/Src/hw_gpio.c"
   1:App/Src/hw_gpio.c **** /*
   2:App/Src/hw_gpio.c ****  / _____)             _              | |
   3:App/Src/hw_gpio.c **** ( (____  _____ ____ _| |_ _____  ____| |__
   4:App/Src/hw_gpio.c ****  \____ \| ___ |    (_   _) ___ |/ ___)  _ \
   5:App/Src/hw_gpio.c ****  _____) ) ____| | | || |_| ____( (___| | | |
   6:App/Src/hw_gpio.c **** (______/|_____)_|_|_| \__)_____)\____)_| |_|
   7:App/Src/hw_gpio.c ****     (C)2013 Semtech
   8:App/Src/hw_gpio.c **** 
   9:App/Src/hw_gpio.c **** Description: Bleeper board GPIO driver implementation
  10:App/Src/hw_gpio.c **** 
  11:App/Src/hw_gpio.c **** License: Revised BSD License, see LICENSE.TXT file include in the project
  12:App/Src/hw_gpio.c **** 
  13:App/Src/hw_gpio.c **** Maintainer: Miguel Luis and Gregory Cristian
  14:App/Src/hw_gpio.c **** */
  15:App/Src/hw_gpio.c **** /**
  16:App/Src/hw_gpio.c ****   ******************************************************************************
  17:App/Src/hw_gpio.c ****   * @file    hw_gpio.c
  18:App/Src/hw_gpio.c ****   * @author  MCD Application Team
  19:App/Src/hw_gpio.c ****   * @brief   driver for GPIO
  20:App/Src/hw_gpio.c ****   ******************************************************************************
  21:App/Src/hw_gpio.c ****   * @attention
  22:App/Src/hw_gpio.c ****   *
  23:App/Src/hw_gpio.c ****   * <h2><center>&copy; Copyright (c) 2018 STMicroelectronics.
  24:App/Src/hw_gpio.c ****   * All rights reserved.</center></h2>
  25:App/Src/hw_gpio.c ****   *
  26:App/Src/hw_gpio.c ****   * This software component is licensed by ST under Ultimate Liberty license
  27:App/Src/hw_gpio.c ****   * SLA0044, the "License"; You may not use this file except in compliance with
  28:App/Src/hw_gpio.c ****   * the License. You may obtain a copy of the License at:
  29:App/Src/hw_gpio.c ****   *                             www.st.com/SLA0044
  30:App/Src/hw_gpio.c ****   *
  31:App/Src/hw_gpio.c ****   ******************************************************************************
  32:App/Src/hw_gpio.c ****   */
ARM GAS  C:\Users\jsauerer\AppData\Local\Temp\ccyWZsMK.s 			page 2


  33:App/Src/hw_gpio.c **** 
  34:App/Src/hw_gpio.c **** /* Includes ------------------------------------------------------------------*/
  35:App/Src/hw_gpio.c **** #include "hw.h"
  36:App/Src/hw_gpio.c **** 
  37:App/Src/hw_gpio.c **** /* Private typedef -----------------------------------------------------------*/
  38:App/Src/hw_gpio.c **** /* Private define ------------------------------------------------------------*/
  39:App/Src/hw_gpio.c **** /* Private macro -------------------------------------------------------------*/
  40:App/Src/hw_gpio.c **** /* Private variables ---------------------------------------------------------*/
  41:App/Src/hw_gpio.c **** static GpioIrqHandler *GpioIrq[16] = { NULL };
  42:App/Src/hw_gpio.c **** 
  43:App/Src/hw_gpio.c **** /* Private function prototypes -----------------------------------------------*/
  44:App/Src/hw_gpio.c **** 
  45:App/Src/hw_gpio.c **** static uint8_t HW_GPIO_GetBitPos(uint16_t GPIO_Pin);
  46:App/Src/hw_gpio.c **** 
  47:App/Src/hw_gpio.c **** /* Exported functions ---------------------------------------------------------*/
  48:App/Src/hw_gpio.c **** /*!
  49:App/Src/hw_gpio.c ****  * @brief Initializes the given GPIO object
  50:App/Src/hw_gpio.c ****  *
  51:App/Src/hw_gpio.c ****  * @param  GPIOx: where x can be (A..E and H)
  52:App/Src/hw_gpio.c ****  * @param  GPIO_Pin: specifies the port bit to be written.
  53:App/Src/hw_gpio.c ****  *                   This parameter can be one of GPIO_PIN_x where x can be (0..15).
  54:App/Src/hw_gpio.c ****  *                   All port bits are not necessarily available on all GPIOs.
  55:App/Src/hw_gpio.c ****  * @param [IN] initStruct  GPIO_InitTypeDef intit structure
  56:App/Src/hw_gpio.c ****  * @retval none
  57:App/Src/hw_gpio.c ****  */
  58:App/Src/hw_gpio.c **** void HW_GPIO_Init(GPIO_TypeDef *port, uint16_t GPIO_Pin, GPIO_InitTypeDef *initStruct)
  59:App/Src/hw_gpio.c **** {
  60:App/Src/hw_gpio.c **** 
  61:App/Src/hw_gpio.c ****   RCC_GPIO_CLK_ENABLE((uint32_t) port);
  62:App/Src/hw_gpio.c **** 
  63:App/Src/hw_gpio.c ****   initStruct->Pin = GPIO_Pin ;
  64:App/Src/hw_gpio.c **** 
  65:App/Src/hw_gpio.c ****   HAL_GPIO_Init(port, initStruct);
  66:App/Src/hw_gpio.c **** }
  67:App/Src/hw_gpio.c **** 
  68:App/Src/hw_gpio.c **** /*!
  69:App/Src/hw_gpio.c ****  * @brief Records the interrupt handler for the GPIO  object
  70:App/Src/hw_gpio.c ****  *
  71:App/Src/hw_gpio.c ****  * @param  GPIOx: where x can be (A..E and H)
  72:App/Src/hw_gpio.c ****  * @param  GPIO_Pin: specifies the port bit to be written.
  73:App/Src/hw_gpio.c ****  *                   This parameter can be one of GPIO_PIN_x where x can be (0..15).
  74:App/Src/hw_gpio.c ****  *                   All port bits are not necessarily available on all GPIOs.
  75:App/Src/hw_gpio.c ****  * @param [IN] prio       NVIC priority (0 is highest)
  76:App/Src/hw_gpio.c ****  * @param [IN] irqHandler  points to the  function to execute
  77:App/Src/hw_gpio.c ****  * @retval none
  78:App/Src/hw_gpio.c ****  */
  79:App/Src/hw_gpio.c **** void HW_GPIO_SetIrq(GPIO_TypeDef *GPIOx, uint16_t GPIO_Pin, uint32_t prio,  GpioIrqHandler *irqHand
  80:App/Src/hw_gpio.c **** {
  81:App/Src/hw_gpio.c ****   IRQn_Type IRQnb;
  82:App/Src/hw_gpio.c **** 
  83:App/Src/hw_gpio.c ****   uint32_t BitPos = HW_GPIO_GetBitPos(GPIO_Pin) ;
  84:App/Src/hw_gpio.c **** 
  85:App/Src/hw_gpio.c ****   if (irqHandler != NULL)
  86:App/Src/hw_gpio.c ****   {
  87:App/Src/hw_gpio.c ****     GpioIrq[ BitPos ] = irqHandler;
  88:App/Src/hw_gpio.c **** 
  89:App/Src/hw_gpio.c ****     IRQnb = MSP_GetIRQn(GPIO_Pin);
ARM GAS  C:\Users\jsauerer\AppData\Local\Temp\ccyWZsMK.s 			page 3


  90:App/Src/hw_gpio.c **** 
  91:App/Src/hw_gpio.c ****     HAL_NVIC_SetPriority(IRQnb, prio, 0);
  92:App/Src/hw_gpio.c **** 
  93:App/Src/hw_gpio.c ****     HAL_NVIC_EnableIRQ(IRQnb);
  94:App/Src/hw_gpio.c ****   }
  95:App/Src/hw_gpio.c ****   else
  96:App/Src/hw_gpio.c ****   {
  97:App/Src/hw_gpio.c ****     GpioIrq[ BitPos ] = NULL;
  98:App/Src/hw_gpio.c ****   }
  99:App/Src/hw_gpio.c **** }
 100:App/Src/hw_gpio.c **** 
 101:App/Src/hw_gpio.c **** /*!
 102:App/Src/hw_gpio.c ****  * @brief Execute the interrupt from the object
 103:App/Src/hw_gpio.c ****  *
 104:App/Src/hw_gpio.c ****  * @param  GPIO_Pin: specifies the port bit to be written.
 105:App/Src/hw_gpio.c ****  *                   This parameter can be one of GPIO_PIN_x where x can be (0..15).
 106:App/Src/hw_gpio.c ****  *                   All port bits are not necessarily available on all GPIOs.
 107:App/Src/hw_gpio.c ****  * @retval none
 108:App/Src/hw_gpio.c ****  */
 109:App/Src/hw_gpio.c **** void HW_GPIO_IrqHandler(uint16_t GPIO_Pin)
 110:App/Src/hw_gpio.c **** {
 111:App/Src/hw_gpio.c ****   uint32_t BitPos = HW_GPIO_GetBitPos(GPIO_Pin);
 112:App/Src/hw_gpio.c **** 
 113:App/Src/hw_gpio.c ****   if (GpioIrq[ BitPos ]  != NULL)
 114:App/Src/hw_gpio.c ****   {
 115:App/Src/hw_gpio.c ****     GpioIrq[ BitPos ](NULL);
 116:App/Src/hw_gpio.c ****   }
 117:App/Src/hw_gpio.c **** }
 118:App/Src/hw_gpio.c **** 
 119:App/Src/hw_gpio.c **** /*!
 120:App/Src/hw_gpio.c ****  * @brief Writes the given value to the GPIO output
 121:App/Src/hw_gpio.c ****  *
 122:App/Src/hw_gpio.c ****  * @param  GPIO_Pin: specifies the port bit to be written.
 123:App/Src/hw_gpio.c ****  *                   This parameter can be one of GPIO_PIN_x where x can be (0..15).
 124:App/Src/hw_gpio.c ****  *                   All port bits are not necessarily available on all GPIOs.
 125:App/Src/hw_gpio.c ****  * @param [IN] value New GPIO output value
 126:App/Src/hw_gpio.c ****  * @retval none
 127:App/Src/hw_gpio.c ****  */
 128:App/Src/hw_gpio.c **** void HW_GPIO_Write(GPIO_TypeDef *GPIOx, uint16_t GPIO_Pin,  uint32_t value)
 129:App/Src/hw_gpio.c **** {
 130:App/Src/hw_gpio.c ****   HAL_GPIO_WritePin(GPIOx, GPIO_Pin, (GPIO_PinState) value);
 131:App/Src/hw_gpio.c **** }
 132:App/Src/hw_gpio.c **** 
 133:App/Src/hw_gpio.c **** /*!
 134:App/Src/hw_gpio.c ****  * @brief Reads the current GPIO input value
 135:App/Src/hw_gpio.c ****  *
 136:App/Src/hw_gpio.c ****  * @param  GPIOx: where x can be (A..E and H)
 137:App/Src/hw_gpio.c ****  * @param  GPIO_Pin: specifies the port bit to be written.
 138:App/Src/hw_gpio.c ****  *                   This parameter can be one of GPIO_PIN_x where x can be (0..15).
 139:App/Src/hw_gpio.c ****  *                   All port bits are not necessarily available on all GPIOs.
 140:App/Src/hw_gpio.c ****  * @retval value   Current GPIO input value
 141:App/Src/hw_gpio.c ****  */
 142:App/Src/hw_gpio.c **** uint32_t HW_GPIO_Read(GPIO_TypeDef *GPIOx, uint16_t GPIO_Pin)
 143:App/Src/hw_gpio.c **** {
 144:App/Src/hw_gpio.c ****   return HAL_GPIO_ReadPin(GPIOx, GPIO_Pin);
 145:App/Src/hw_gpio.c **** }
 146:App/Src/hw_gpio.c **** 
ARM GAS  C:\Users\jsauerer\AppData\Local\Temp\ccyWZsMK.s 			page 4


 147:App/Src/hw_gpio.c **** /* Private functions ---------------------------------------------------------*/
 148:App/Src/hw_gpio.c **** 
 149:App/Src/hw_gpio.c **** /*!
 150:App/Src/hw_gpio.c ****  * @brief Get the position of the bit set in the GPIO_Pin
 151:App/Src/hw_gpio.c ****  * @param  GPIO_Pin: specifies the port bit to be written.
 152:App/Src/hw_gpio.c ****  *                   This parameter can be one of GPIO_PIN_x where x can be (0..15).
 153:App/Src/hw_gpio.c ****  *                   All port bits are not necessarily available on all GPIOs.
 154:App/Src/hw_gpio.c ****  * @retval the position of the bit
 155:App/Src/hw_gpio.c ****  */
 156:App/Src/hw_gpio.c **** static uint8_t HW_GPIO_GetBitPos(uint16_t GPIO_Pin)
 157:App/Src/hw_gpio.c **** {
  27              		.loc 1 157 1 view -0
  28              		.cfi_startproc
  29              		@ args = 0, pretend = 0, frame = 0
  30              		@ frame_needed = 0, uses_anonymous_args = 0
  31              		@ link register save eliminated.
  32              		.loc 1 157 1 is_stmt 0 view .LVU1
  33 0000 0346     		mov	r3, r0
 158:App/Src/hw_gpio.c ****   uint8_t PinPos = 0;
  34              		.loc 1 158 3 is_stmt 1 view .LVU2
  35              	.LVL1:
 159:App/Src/hw_gpio.c **** 
 160:App/Src/hw_gpio.c ****   if ((GPIO_Pin & 0xFF00) != 0)
  36              		.loc 1 160 3 view .LVU3
  37              		.loc 1 160 6 is_stmt 0 view .LVU4
  38 0002 10F47F4F 		tst	r0, #65280
  39 0006 19D1     		bne	.L6
 158:App/Src/hw_gpio.c ****   uint8_t PinPos = 0;
  40              		.loc 1 158 11 view .LVU5
  41 0008 0020     		movs	r0, #0
  42              	.LVL2:
  43              	.L2:
 161:App/Src/hw_gpio.c ****   {
 162:App/Src/hw_gpio.c ****     PinPos |= 0x8;
 163:App/Src/hw_gpio.c ****   }
 164:App/Src/hw_gpio.c ****   if ((GPIO_Pin & 0xF0F0) != 0)
  44              		.loc 1 164 3 is_stmt 1 view .LVU6
  45              		.loc 1 164 6 is_stmt 0 view .LVU7
  46 000a 23F47062 		bic	r2, r3, #3840
  47 000e 22F00F02 		bic	r2, r2, #15
  48 0012 92B2     		uxth	r2, r2
  49 0014 0AB1     		cbz	r2, .L3
 165:App/Src/hw_gpio.c ****   {
 166:App/Src/hw_gpio.c ****     PinPos |= 0x4;
  50              		.loc 1 166 5 is_stmt 1 view .LVU8
  51              		.loc 1 166 12 is_stmt 0 view .LVU9
  52 0016 40F00400 		orr	r0, r0, #4
  53              	.LVL3:
  54              	.L3:
 167:App/Src/hw_gpio.c ****   }
 168:App/Src/hw_gpio.c ****   if ((GPIO_Pin & 0xCCCC) != 0)
  55              		.loc 1 168 3 is_stmt 1 view .LVU10
  56              		.loc 1 168 6 is_stmt 0 view .LVU11
  57 001a 23F44C52 		bic	r2, r3, #13056
  58 001e 22F03302 		bic	r2, r2, #51
  59 0022 92B2     		uxth	r2, r2
  60 0024 0AB1     		cbz	r2, .L4
ARM GAS  C:\Users\jsauerer\AppData\Local\Temp\ccyWZsMK.s 			page 5


 169:App/Src/hw_gpio.c ****   {
 170:App/Src/hw_gpio.c ****     PinPos |= 0x2;
  61              		.loc 1 170 5 is_stmt 1 view .LVU12
  62              		.loc 1 170 12 is_stmt 0 view .LVU13
  63 0026 40F00200 		orr	r0, r0, #2
  64              	.LVL4:
  65              	.L4:
 171:App/Src/hw_gpio.c ****   }
 172:App/Src/hw_gpio.c ****   if ((GPIO_Pin & 0xAAAA) != 0)
  66              		.loc 1 172 3 is_stmt 1 view .LVU14
  67              		.loc 1 172 6 is_stmt 0 view .LVU15
  68 002a 23F4AA43 		bic	r3, r3, #21760
  69 002e 23F05503 		bic	r3, r3, #85
  70 0032 9BB2     		uxth	r3, r3
  71 0034 0BB1     		cbz	r3, .L5
 173:App/Src/hw_gpio.c ****   {
 174:App/Src/hw_gpio.c ****     PinPos |= 0x1;
  72              		.loc 1 174 5 is_stmt 1 view .LVU16
  73              		.loc 1 174 12 is_stmt 0 view .LVU17
  74 0036 40F00100 		orr	r0, r0, #1
  75              	.LVL5:
  76              	.L5:
 175:App/Src/hw_gpio.c ****   }
 176:App/Src/hw_gpio.c **** 
 177:App/Src/hw_gpio.c ****   return PinPos;
  77              		.loc 1 177 3 is_stmt 1 view .LVU18
 178:App/Src/hw_gpio.c **** }
  78              		.loc 1 178 1 is_stmt 0 view .LVU19
  79 003a 7047     		bx	lr
  80              	.LVL6:
  81              	.L6:
 162:App/Src/hw_gpio.c ****   }
  82              		.loc 1 162 12 view .LVU20
  83 003c 0820     		movs	r0, #8
  84              	.LVL7:
 162:App/Src/hw_gpio.c ****   }
  85              		.loc 1 162 12 view .LVU21
  86 003e E4E7     		b	.L2
  87              		.cfi_endproc
  88              	.LFE116:
  90              		.section	.text.HW_GPIO_Init,"ax",%progbits
  91              		.align	1
  92              		.global	HW_GPIO_Init
  93              		.syntax unified
  94              		.thumb
  95              		.thumb_func
  96              		.fpu softvfp
  98              	HW_GPIO_Init:
  99              	.LVL8:
 100              	.LFB111:
  59:App/Src/hw_gpio.c **** 
 101              		.loc 1 59 1 is_stmt 1 view -0
 102              		.cfi_startproc
 103              		@ args = 0, pretend = 0, frame = 16
 104              		@ frame_needed = 0, uses_anonymous_args = 0
  59:App/Src/hw_gpio.c **** 
 105              		.loc 1 59 1 is_stmt 0 view .LVU23
ARM GAS  C:\Users\jsauerer\AppData\Local\Temp\ccyWZsMK.s 			page 6


 106 0000 10B5     		push	{r4, lr}
 107              	.LCFI0:
 108              		.cfi_def_cfa_offset 8
 109              		.cfi_offset 4, -8
 110              		.cfi_offset 14, -4
 111 0002 84B0     		sub	sp, sp, #16
 112              	.LCFI1:
 113              		.cfi_def_cfa_offset 24
 114 0004 0C46     		mov	r4, r1
 115 0006 1146     		mov	r1, r2
 116              	.LVL9:
  61:App/Src/hw_gpio.c **** 
 117              		.loc 1 61 3 is_stmt 1 view .LVU24
  61:App/Src/hw_gpio.c **** 
 118              		.loc 1 61 3 view .LVU25
 119 0008 1F4B     		ldr	r3, .L15
 120 000a 9842     		cmp	r0, r3
 121 000c 30D0     		beq	.L8
 122 000e 12D8     		bhi	.L9
 123 0010 A3F50063 		sub	r3, r3, #2048
 124 0014 9842     		cmp	r0, r3
 125 0016 1CD0     		beq	.L10
 126 0018 03F58063 		add	r3, r3, #1024
 127 001c 9842     		cmp	r0, r3
 128 001e 22D1     		bne	.L12
  61:App/Src/hw_gpio.c **** 
 129              		.loc 1 61 3 discriminator 3 view .LVU26
 130              	.LBB2:
  61:App/Src/hw_gpio.c **** 
 131              		.loc 1 61 3 discriminator 3 view .LVU27
  61:App/Src/hw_gpio.c **** 
 132              		.loc 1 61 3 discriminator 3 view .LVU28
 133 0020 1A4B     		ldr	r3, .L15+4
 134 0022 9A69     		ldr	r2, [r3, #24]
 135              	.LVL10:
  61:App/Src/hw_gpio.c **** 
 136              		.loc 1 61 3 is_stmt 0 discriminator 3 view .LVU29
 137 0024 42F00802 		orr	r2, r2, #8
 138 0028 9A61     		str	r2, [r3, #24]
  61:App/Src/hw_gpio.c **** 
 139              		.loc 1 61 3 is_stmt 1 discriminator 3 view .LVU30
 140 002a 9B69     		ldr	r3, [r3, #24]
 141 002c 03F00803 		and	r3, r3, #8
 142 0030 0193     		str	r3, [sp, #4]
  61:App/Src/hw_gpio.c **** 
 143              		.loc 1 61 3 discriminator 3 view .LVU31
 144 0032 019B     		ldr	r3, [sp, #4]
 145              	.LBE2:
  61:App/Src/hw_gpio.c **** 
 146              		.loc 1 61 3 discriminator 3 view .LVU32
  61:App/Src/hw_gpio.c **** 
 147              		.loc 1 61 3 discriminator 3 view .LVU33
 148 0034 17E0     		b	.L12
 149              	.L9:
  61:App/Src/hw_gpio.c **** 
 150              		.loc 1 61 3 is_stmt 0 view .LVU34
 151 0036 164B     		ldr	r3, .L15+8
ARM GAS  C:\Users\jsauerer\AppData\Local\Temp\ccyWZsMK.s 			page 7


 152 0038 9842     		cmp	r0, r3
 153 003a 14D1     		bne	.L12
  61:App/Src/hw_gpio.c **** 
 154              		.loc 1 61 3 is_stmt 1 discriminator 5 view .LVU35
 155              	.LBB3:
  61:App/Src/hw_gpio.c **** 
 156              		.loc 1 61 3 discriminator 5 view .LVU36
  61:App/Src/hw_gpio.c **** 
 157              		.loc 1 61 3 discriminator 5 view .LVU37
 158 003c 134B     		ldr	r3, .L15+4
 159 003e 9A69     		ldr	r2, [r3, #24]
 160 0040 42F02002 		orr	r2, r2, #32
 161 0044 9A61     		str	r2, [r3, #24]
  61:App/Src/hw_gpio.c **** 
 162              		.loc 1 61 3 discriminator 5 view .LVU38
 163 0046 9B69     		ldr	r3, [r3, #24]
 164 0048 03F02003 		and	r3, r3, #32
 165 004c 0393     		str	r3, [sp, #12]
  61:App/Src/hw_gpio.c **** 
 166              		.loc 1 61 3 discriminator 5 view .LVU39
 167 004e 039B     		ldr	r3, [sp, #12]
 168              	.LBE3:
  61:App/Src/hw_gpio.c **** 
 169              		.loc 1 61 3 discriminator 5 view .LVU40
  61:App/Src/hw_gpio.c **** 
 170              		.loc 1 61 3 discriminator 5 view .LVU41
 171 0050 09E0     		b	.L12
 172              	.L10:
  61:App/Src/hw_gpio.c **** 
 173              		.loc 1 61 3 discriminator 2 view .LVU42
 174              	.LBB4:
  61:App/Src/hw_gpio.c **** 
 175              		.loc 1 61 3 discriminator 2 view .LVU43
  61:App/Src/hw_gpio.c **** 
 176              		.loc 1 61 3 discriminator 2 view .LVU44
 177 0052 0E4B     		ldr	r3, .L15+4
 178 0054 9A69     		ldr	r2, [r3, #24]
 179 0056 42F00402 		orr	r2, r2, #4
 180 005a 9A61     		str	r2, [r3, #24]
  61:App/Src/hw_gpio.c **** 
 181              		.loc 1 61 3 discriminator 2 view .LVU45
 182 005c 9B69     		ldr	r3, [r3, #24]
 183 005e 03F00403 		and	r3, r3, #4
 184 0062 0093     		str	r3, [sp]
  61:App/Src/hw_gpio.c **** 
 185              		.loc 1 61 3 discriminator 2 view .LVU46
 186 0064 009B     		ldr	r3, [sp]
 187              	.LBE4:
  61:App/Src/hw_gpio.c **** 
 188              		.loc 1 61 3 discriminator 2 view .LVU47
  61:App/Src/hw_gpio.c **** 
 189              		.loc 1 61 3 discriminator 2 view .LVU48
 190              	.L12:
  61:App/Src/hw_gpio.c **** 
 191              		.loc 1 61 3 discriminator 9 view .LVU49
  63:App/Src/hw_gpio.c **** 
 192              		.loc 1 63 3 discriminator 9 view .LVU50
ARM GAS  C:\Users\jsauerer\AppData\Local\Temp\ccyWZsMK.s 			page 8


  63:App/Src/hw_gpio.c **** 
 193              		.loc 1 63 19 is_stmt 0 discriminator 9 view .LVU51
 194 0066 0C60     		str	r4, [r1]
  65:App/Src/hw_gpio.c **** }
 195              		.loc 1 65 3 is_stmt 1 discriminator 9 view .LVU52
 196 0068 FFF7FEFF 		bl	HAL_GPIO_Init
 197              	.LVL11:
  66:App/Src/hw_gpio.c **** 
 198              		.loc 1 66 1 is_stmt 0 discriminator 9 view .LVU53
 199 006c 04B0     		add	sp, sp, #16
 200              	.LCFI2:
 201              		.cfi_remember_state
 202              		.cfi_def_cfa_offset 8
 203              		@ sp needed
 204 006e 10BD     		pop	{r4, pc}
 205              	.LVL12:
 206              	.L8:
 207              	.LCFI3:
 208              		.cfi_restore_state
  61:App/Src/hw_gpio.c **** 
 209              		.loc 1 61 3 is_stmt 1 discriminator 4 view .LVU54
 210              	.LBB5:
  61:App/Src/hw_gpio.c **** 
 211              		.loc 1 61 3 discriminator 4 view .LVU55
  61:App/Src/hw_gpio.c **** 
 212              		.loc 1 61 3 discriminator 4 view .LVU56
 213 0070 064B     		ldr	r3, .L15+4
 214 0072 9A69     		ldr	r2, [r3, #24]
 215 0074 42F01002 		orr	r2, r2, #16
 216 0078 9A61     		str	r2, [r3, #24]
  61:App/Src/hw_gpio.c **** 
 217              		.loc 1 61 3 discriminator 4 view .LVU57
 218 007a 9B69     		ldr	r3, [r3, #24]
 219 007c 03F01003 		and	r3, r3, #16
 220 0080 0293     		str	r3, [sp, #8]
  61:App/Src/hw_gpio.c **** 
 221              		.loc 1 61 3 discriminator 4 view .LVU58
 222 0082 029B     		ldr	r3, [sp, #8]
 223              	.LBE5:
  61:App/Src/hw_gpio.c **** 
 224              		.loc 1 61 3 discriminator 4 view .LVU59
  61:App/Src/hw_gpio.c **** 
 225              		.loc 1 61 3 discriminator 4 view .LVU60
 226 0084 EFE7     		b	.L12
 227              	.L16:
 228 0086 00BF     		.align	2
 229              	.L15:
 230 0088 00100140 		.word	1073811456
 231 008c 00100240 		.word	1073876992
 232 0090 00140140 		.word	1073812480
 233              		.cfi_endproc
 234              	.LFE111:
 236              		.section	.text.HW_GPIO_SetIrq,"ax",%progbits
 237              		.align	1
 238              		.global	HW_GPIO_SetIrq
 239              		.syntax unified
 240              		.thumb
ARM GAS  C:\Users\jsauerer\AppData\Local\Temp\ccyWZsMK.s 			page 9


 241              		.thumb_func
 242              		.fpu softvfp
 244              	HW_GPIO_SetIrq:
 245              	.LVL13:
 246              	.LFB112:
  80:App/Src/hw_gpio.c ****   IRQn_Type IRQnb;
 247              		.loc 1 80 1 view -0
 248              		.cfi_startproc
 249              		@ args = 0, pretend = 0, frame = 0
 250              		@ frame_needed = 0, uses_anonymous_args = 0
  80:App/Src/hw_gpio.c ****   IRQn_Type IRQnb;
 251              		.loc 1 80 1 is_stmt 0 view .LVU62
 252 0000 70B5     		push	{r4, r5, r6, lr}
 253              	.LCFI4:
 254              		.cfi_def_cfa_offset 16
 255              		.cfi_offset 4, -16
 256              		.cfi_offset 5, -12
 257              		.cfi_offset 6, -8
 258              		.cfi_offset 14, -4
 259 0002 0C46     		mov	r4, r1
 260 0004 1646     		mov	r6, r2
 261 0006 1D46     		mov	r5, r3
  81:App/Src/hw_gpio.c **** 
 262              		.loc 1 81 3 is_stmt 1 view .LVU63
  83:App/Src/hw_gpio.c **** 
 263              		.loc 1 83 3 view .LVU64
  83:App/Src/hw_gpio.c **** 
 264              		.loc 1 83 21 is_stmt 0 view .LVU65
 265 0008 0846     		mov	r0, r1
 266              	.LVL14:
  83:App/Src/hw_gpio.c **** 
 267              		.loc 1 83 21 view .LVU66
 268 000a FFF7FEFF 		bl	HW_GPIO_GetBitPos
 269              	.LVL15:
  85:App/Src/hw_gpio.c ****   {
 270              		.loc 1 85 3 is_stmt 1 view .LVU67
  85:App/Src/hw_gpio.c ****   {
 271              		.loc 1 85 6 is_stmt 0 view .LVU68
 272 000e 75B1     		cbz	r5, .L18
  87:App/Src/hw_gpio.c **** 
 273              		.loc 1 87 5 is_stmt 1 view .LVU69
  87:App/Src/hw_gpio.c **** 
 274              		.loc 1 87 23 is_stmt 0 view .LVU70
 275 0010 094B     		ldr	r3, .L21
 276 0012 43F82050 		str	r5, [r3, r0, lsl #2]
  89:App/Src/hw_gpio.c **** 
 277              		.loc 1 89 5 is_stmt 1 view .LVU71
  89:App/Src/hw_gpio.c **** 
 278              		.loc 1 89 13 is_stmt 0 view .LVU72
 279 0016 2046     		mov	r0, r4
 280              	.LVL16:
  89:App/Src/hw_gpio.c **** 
 281              		.loc 1 89 13 view .LVU73
 282 0018 FFF7FEFF 		bl	MSP_GetIRQn
 283              	.LVL17:
 284 001c 0446     		mov	r4, r0
 285              	.LVL18:
ARM GAS  C:\Users\jsauerer\AppData\Local\Temp\ccyWZsMK.s 			page 10


  91:App/Src/hw_gpio.c **** 
 286              		.loc 1 91 5 is_stmt 1 view .LVU74
 287 001e 0022     		movs	r2, #0
 288 0020 3146     		mov	r1, r6
 289 0022 FFF7FEFF 		bl	HAL_NVIC_SetPriority
 290              	.LVL19:
  93:App/Src/hw_gpio.c ****   }
 291              		.loc 1 93 5 view .LVU75
 292 0026 2046     		mov	r0, r4
 293 0028 FFF7FEFF 		bl	HAL_NVIC_EnableIRQ
 294              	.LVL20:
 295              	.L17:
  99:App/Src/hw_gpio.c **** 
 296              		.loc 1 99 1 is_stmt 0 view .LVU76
 297 002c 70BD     		pop	{r4, r5, r6, pc}
 298              	.LVL21:
 299              	.L18:
  97:App/Src/hw_gpio.c ****   }
 300              		.loc 1 97 5 is_stmt 1 view .LVU77
  97:App/Src/hw_gpio.c ****   }
 301              		.loc 1 97 23 is_stmt 0 view .LVU78
 302 002e 024B     		ldr	r3, .L21
 303 0030 0022     		movs	r2, #0
 304 0032 43F82020 		str	r2, [r3, r0, lsl #2]
  99:App/Src/hw_gpio.c **** 
 305              		.loc 1 99 1 view .LVU79
 306 0036 F9E7     		b	.L17
 307              	.L22:
 308              		.align	2
 309              	.L21:
 310 0038 00000000 		.word	.LANCHOR0
 311              		.cfi_endproc
 312              	.LFE112:
 314              		.section	.text.HW_GPIO_IrqHandler,"ax",%progbits
 315              		.align	1
 316              		.global	HW_GPIO_IrqHandler
 317              		.syntax unified
 318              		.thumb
 319              		.thumb_func
 320              		.fpu softvfp
 322              	HW_GPIO_IrqHandler:
 323              	.LVL22:
 324              	.LFB113:
 110:App/Src/hw_gpio.c ****   uint32_t BitPos = HW_GPIO_GetBitPos(GPIO_Pin);
 325              		.loc 1 110 1 is_stmt 1 view -0
 326              		.cfi_startproc
 327              		@ args = 0, pretend = 0, frame = 0
 328              		@ frame_needed = 0, uses_anonymous_args = 0
 110:App/Src/hw_gpio.c ****   uint32_t BitPos = HW_GPIO_GetBitPos(GPIO_Pin);
 329              		.loc 1 110 1 is_stmt 0 view .LVU81
 330 0000 08B5     		push	{r3, lr}
 331              	.LCFI5:
 332              		.cfi_def_cfa_offset 8
 333              		.cfi_offset 3, -8
 334              		.cfi_offset 14, -4
 111:App/Src/hw_gpio.c **** 
 335              		.loc 1 111 3 is_stmt 1 view .LVU82
ARM GAS  C:\Users\jsauerer\AppData\Local\Temp\ccyWZsMK.s 			page 11


 111:App/Src/hw_gpio.c **** 
 336              		.loc 1 111 21 is_stmt 0 view .LVU83
 337 0002 FFF7FEFF 		bl	HW_GPIO_GetBitPos
 338              	.LVL23:
 113:App/Src/hw_gpio.c ****   {
 339              		.loc 1 113 3 is_stmt 1 view .LVU84
 113:App/Src/hw_gpio.c ****   {
 340              		.loc 1 113 14 is_stmt 0 view .LVU85
 341 0006 034B     		ldr	r3, .L26
 342 0008 53F82030 		ldr	r3, [r3, r0, lsl #2]
 113:App/Src/hw_gpio.c ****   {
 343              		.loc 1 113 6 view .LVU86
 344 000c 0BB1     		cbz	r3, .L23
 115:App/Src/hw_gpio.c ****   }
 345              		.loc 1 115 5 is_stmt 1 view .LVU87
 346 000e 0020     		movs	r0, #0
 347              	.LVL24:
 115:App/Src/hw_gpio.c ****   }
 348              		.loc 1 115 5 is_stmt 0 view .LVU88
 349 0010 9847     		blx	r3
 350              	.LVL25:
 351              	.L23:
 117:App/Src/hw_gpio.c **** 
 352              		.loc 1 117 1 view .LVU89
 353 0012 08BD     		pop	{r3, pc}
 354              	.L27:
 355              		.align	2
 356              	.L26:
 357 0014 00000000 		.word	.LANCHOR0
 358              		.cfi_endproc
 359              	.LFE113:
 361              		.section	.text.HW_GPIO_Write,"ax",%progbits
 362              		.align	1
 363              		.global	HW_GPIO_Write
 364              		.syntax unified
 365              		.thumb
 366              		.thumb_func
 367              		.fpu softvfp
 369              	HW_GPIO_Write:
 370              	.LVL26:
 371              	.LFB114:
 129:App/Src/hw_gpio.c ****   HAL_GPIO_WritePin(GPIOx, GPIO_Pin, (GPIO_PinState) value);
 372              		.loc 1 129 1 is_stmt 1 view -0
 373              		.cfi_startproc
 374              		@ args = 0, pretend = 0, frame = 0
 375              		@ frame_needed = 0, uses_anonymous_args = 0
 129:App/Src/hw_gpio.c ****   HAL_GPIO_WritePin(GPIOx, GPIO_Pin, (GPIO_PinState) value);
 376              		.loc 1 129 1 is_stmt 0 view .LVU91
 377 0000 08B5     		push	{r3, lr}
 378              	.LCFI6:
 379              		.cfi_def_cfa_offset 8
 380              		.cfi_offset 3, -8
 381              		.cfi_offset 14, -4
 130:App/Src/hw_gpio.c **** }
 382              		.loc 1 130 3 is_stmt 1 view .LVU92
 383 0002 D2B2     		uxtb	r2, r2
 384              	.LVL27:
ARM GAS  C:\Users\jsauerer\AppData\Local\Temp\ccyWZsMK.s 			page 12


 130:App/Src/hw_gpio.c **** }
 385              		.loc 1 130 3 is_stmt 0 view .LVU93
 386 0004 FFF7FEFF 		bl	HAL_GPIO_WritePin
 387              	.LVL28:
 131:App/Src/hw_gpio.c **** 
 388              		.loc 1 131 1 view .LVU94
 389 0008 08BD     		pop	{r3, pc}
 390              		.cfi_endproc
 391              	.LFE114:
 393              		.section	.text.HW_GPIO_Read,"ax",%progbits
 394              		.align	1
 395              		.global	HW_GPIO_Read
 396              		.syntax unified
 397              		.thumb
 398              		.thumb_func
 399              		.fpu softvfp
 401              	HW_GPIO_Read:
 402              	.LVL29:
 403              	.LFB115:
 143:App/Src/hw_gpio.c ****   return HAL_GPIO_ReadPin(GPIOx, GPIO_Pin);
 404              		.loc 1 143 1 is_stmt 1 view -0
 405              		.cfi_startproc
 406              		@ args = 0, pretend = 0, frame = 0
 407              		@ frame_needed = 0, uses_anonymous_args = 0
 143:App/Src/hw_gpio.c ****   return HAL_GPIO_ReadPin(GPIOx, GPIO_Pin);
 408              		.loc 1 143 1 is_stmt 0 view .LVU96
 409 0000 08B5     		push	{r3, lr}
 410              	.LCFI7:
 411              		.cfi_def_cfa_offset 8
 412              		.cfi_offset 3, -8
 413              		.cfi_offset 14, -4
 144:App/Src/hw_gpio.c **** }
 414              		.loc 1 144 3 is_stmt 1 view .LVU97
 144:App/Src/hw_gpio.c **** }
 415              		.loc 1 144 10 is_stmt 0 view .LVU98
 416 0002 FFF7FEFF 		bl	HAL_GPIO_ReadPin
 417              	.LVL30:
 145:App/Src/hw_gpio.c **** 
 418              		.loc 1 145 1 view .LVU99
 419 0006 08BD     		pop	{r3, pc}
 420              		.cfi_endproc
 421              	.LFE115:
 423              		.section	.bss.GpioIrq,"aw",%nobits
 424              		.align	2
 425              		.set	.LANCHOR0,. + 0
 428              	GpioIrq:
 429 0000 00000000 		.space	64
 429      00000000 
 429      00000000 
 429      00000000 
 429      00000000 
 430              		.text
 431              	.Letext0:
 432              		.file 2 "c:\\vsarm\\armcc\\arm-none-eabi\\include\\machine\\_default_types.h"
 433              		.file 3 "c:\\vsarm\\armcc\\arm-none-eabi\\include\\sys\\lock.h"
 434              		.file 4 "c:\\vsarm\\armcc\\arm-none-eabi\\include\\sys\\_types.h"
 435              		.file 5 "c:\\vsarm\\armcc\\lib\\gcc\\arm-none-eabi\\9.2.1\\include\\stddef.h"
ARM GAS  C:\Users\jsauerer\AppData\Local\Temp\ccyWZsMK.s 			page 13


 436              		.file 6 "c:\\vsarm\\armcc\\arm-none-eabi\\include\\sys\\reent.h"
 437              		.file 7 "c:\\vsarm\\armcc\\arm-none-eabi\\include\\math.h"
 438              		.file 8 "c:\\vsarm\\armcc\\arm-none-eabi\\include\\sys\\_stdint.h"
 439              		.file 9 "Drivers/CMSIS/Device/ST/STM32F1xx/Include/stm32f103xb.h"
 440              		.file 10 "Drivers/CMSIS/Include/core_cm3.h"
 441              		.file 11 "Drivers/CMSIS/Device/ST/STM32F1xx/Include/system_stm32f1xx.h"
 442              		.file 12 "Drivers/STM32F1xx_HAL_Driver/Inc/stm32f1xx_hal_def.h"
 443              		.file 13 "Drivers/STM32F1xx_HAL_Driver/Inc/stm32f1xx_hal_gpio.h"
 444              		.file 14 "Drivers/STM32F1xx_HAL_Driver/Inc/stm32f1xx_hal_dma.h"
 445              		.file 15 "Drivers/STM32F1xx_HAL_Driver/Inc/stm32f1xx_hal_i2c.h"
 446              		.file 16 "Drivers/STM32F1xx_HAL_Driver/Inc/stm32f1xx_hal.h"
 447              		.file 17 "App/Inc/hw_gpio.h"
 448              		.file 18 "App/Inc/hw_i2c.h"
 449              		.file 19 "Drivers/STM32F1xx_HAL_Driver/Inc/stm32f1xx_hal_cortex.h"
ARM GAS  C:\Users\jsauerer\AppData\Local\Temp\ccyWZsMK.s 			page 14

