ARM GAS  C:\Users\jsauerer\AppData\Local\Temp\ccDLNG3v.s 			page 1


   1              		.cpu cortex-m3
   2              		.eabi_attribute 20, 1
   3              		.eabi_attribute 21, 1
   4              		.eabi_attribute 23, 3
   5              		.eabi_attribute 24, 1
   6              		.eabi_attribute 25, 1
   7              		.eabi_attribute 26, 1
   8              		.eabi_attribute 30, 1
   9              		.eabi_attribute 34, 1
  10              		.eabi_attribute 18, 4
  11              		.file	"mpu6050.c"
  12              		.text
  13              	.Ltext0:
  14              		.cfi_sections	.debug_frame
  15              		.section	.text.MPU6050_ReadAcc,"ax",%progbits
  16              		.align	1
  17              		.global	MPU6050_ReadAcc
  18              		.arch armv7-m
  19              		.syntax unified
  20              		.thumb
  21              		.thumb_func
  22              		.fpu softvfp
  24              	MPU6050_ReadAcc:
  25              	.LVL0:
  26              	.LFB112:
  27              		.file 1 "Drivers/BSP/mpu6050/mpu6050.c"
   1:Drivers/BSP/mpu6050/mpu6050.c **** #include "mpu6050.h"
   2:Drivers/BSP/mpu6050/mpu6050.c **** 
   3:Drivers/BSP/mpu6050/mpu6050.c **** MPU6050_Error MPU6050_LPMotionInit(MPU6050_DEV dev)
   4:Drivers/BSP/mpu6050/mpu6050.c **** {
   5:Drivers/BSP/mpu6050/mpu6050.c ****     // The sensor has a high-pass filter necessary to invoke to allow the sensor motion detection a
   6:Drivers/BSP/mpu6050/mpu6050.c ****     // Motion detection occurs on free-fall (acceleration below a threshold for some time for all a
   7:Drivers/BSP/mpu6050/mpu6050.c ****     // above a threshold for some time on at least one axis), and zero-motion toggle (acceleration 
   8:Drivers/BSP/mpu6050/mpu6050.c ****     // threshold for some time sets this flag, motion above the threshold turns it off). The high-p
   9:Drivers/BSP/mpu6050/mpu6050.c ****     // consideration for these threshold evaluations; otherwise, the flags would be set all the tim
  10:Drivers/BSP/mpu6050/mpu6050.c **** 
  11:Drivers/BSP/mpu6050/mpu6050.c ****     uint8_t c;
  12:Drivers/BSP/mpu6050/mpu6050.c ****     //  wake up device-don't need this here if using calibration function below
  13:Drivers/BSP/mpu6050/mpu6050.c ****     MPU6050_WriteByte(dev, PWR_MGMT_1, 0x00); // Clear sleep mode bit (6), enable all sensors
  14:Drivers/BSP/mpu6050/mpu6050.c ****     // Delay 100 ms for PLL to get established on x-axis gyro; should check for PLL ready interrupt
  15:Drivers/BSP/mpu6050/mpu6050.c ****     MPU6050_Delay(100);
  16:Drivers/BSP/mpu6050/mpu6050.c ****     // get stable time source
  17:Drivers/BSP/mpu6050/mpu6050.c ****     MPU6050_Error status = MPU6050_WriteByte(dev, PWR_MGMT_1, 0x01); // Set clock source to be PLL 
  18:Drivers/BSP/mpu6050/mpu6050.c ****     if (status != MPU6050_ERROR_NONE)
  19:Drivers/BSP/mpu6050/mpu6050.c ****     {
  20:Drivers/BSP/mpu6050/mpu6050.c ****         return status;
  21:Drivers/BSP/mpu6050/mpu6050.c ****     }
  22:Drivers/BSP/mpu6050/mpu6050.c ****     // Configure Gyro and Accelerometer
  23:Drivers/BSP/mpu6050/mpu6050.c ****     // Disable FSYNC and set accelerometer and gyro bandwidth to 44 and 42 Hz, respectively;
  24:Drivers/BSP/mpu6050/mpu6050.c ****     // DLPF_CFG = bits 2:0 = 010; this sets the sample rate at 1 kHz for both
  25:Drivers/BSP/mpu6050/mpu6050.c ****     // Maximum delay time is 4.9 ms corresponding to just over 200 Hz sample rate
  26:Drivers/BSP/mpu6050/mpu6050.c ****     status = MPU6050_WriteByte(dev, CONFIG, 0x03);
  27:Drivers/BSP/mpu6050/mpu6050.c **** 
  28:Drivers/BSP/mpu6050/mpu6050.c ****     if (status != MPU6050_ERROR_NONE)
  29:Drivers/BSP/mpu6050/mpu6050.c ****     {
  30:Drivers/BSP/mpu6050/mpu6050.c ****         return status;
  31:Drivers/BSP/mpu6050/mpu6050.c ****     }
ARM GAS  C:\Users\jsauerer\AppData\Local\Temp\ccDLNG3v.s 			page 2


  32:Drivers/BSP/mpu6050/mpu6050.c ****     // Set sample rate = gyroscope output rate/(1 + SMPLRT_DIV)
  33:Drivers/BSP/mpu6050/mpu6050.c ****     status = MPU6050_WriteByte(dev, SMPLRT_DIV, 0x04); // Use a 200 Hz rate; the same rate set in C
  34:Drivers/BSP/mpu6050/mpu6050.c **** 
  35:Drivers/BSP/mpu6050/mpu6050.c ****     // Set gyroscope full scale range
  36:Drivers/BSP/mpu6050/mpu6050.c ****     // Range selects FS_SEL and AFS_SEL are 0 - 3, so 2-bit values are left-shifted into positions 
  37:Drivers/BSP/mpu6050/mpu6050.c ****     status = MPU6050_ReadByte(dev, GYRO_CONFIG, &c);
  38:Drivers/BSP/mpu6050/mpu6050.c ****     if (status != MPU6050_ERROR_NONE)
  39:Drivers/BSP/mpu6050/mpu6050.c ****     {
  40:Drivers/BSP/mpu6050/mpu6050.c ****         return status;
  41:Drivers/BSP/mpu6050/mpu6050.c ****     }
  42:Drivers/BSP/mpu6050/mpu6050.c ****     status = MPU6050_WriteByte(dev, GYRO_CONFIG, c & ~0xE0); // Clear self-test bits [7:5]
  43:Drivers/BSP/mpu6050/mpu6050.c ****     if (status != MPU6050_ERROR_NONE)
  44:Drivers/BSP/mpu6050/mpu6050.c ****     {
  45:Drivers/BSP/mpu6050/mpu6050.c ****         return status;
  46:Drivers/BSP/mpu6050/mpu6050.c ****     }
  47:Drivers/BSP/mpu6050/mpu6050.c ****     status = MPU6050_WriteByte(dev, GYRO_CONFIG, c & ~0x18); // Clear AFS bits [4:3]
  48:Drivers/BSP/mpu6050/mpu6050.c ****     if (status != MPU6050_ERROR_NONE)
  49:Drivers/BSP/mpu6050/mpu6050.c ****     {
  50:Drivers/BSP/mpu6050/mpu6050.c ****         return status;
  51:Drivers/BSP/mpu6050/mpu6050.c ****     }
  52:Drivers/BSP/mpu6050/mpu6050.c ****     status = MPU6050_WriteByte(dev, GYRO_CONFIG, c | dev->Data.gscale << 3); // Set full scale rang
  53:Drivers/BSP/mpu6050/mpu6050.c ****     if (status != MPU6050_ERROR_NONE)
  54:Drivers/BSP/mpu6050/mpu6050.c ****     {
  55:Drivers/BSP/mpu6050/mpu6050.c ****         return status;
  56:Drivers/BSP/mpu6050/mpu6050.c ****     }
  57:Drivers/BSP/mpu6050/mpu6050.c **** 
  58:Drivers/BSP/mpu6050/mpu6050.c ****     // Set accelerometer configuration
  59:Drivers/BSP/mpu6050/mpu6050.c ****     status = MPU6050_ReadByte(dev, ACCEL_CONFIG, &c);
  60:Drivers/BSP/mpu6050/mpu6050.c ****     if (status != MPU6050_ERROR_NONE)
  61:Drivers/BSP/mpu6050/mpu6050.c ****     {
  62:Drivers/BSP/mpu6050/mpu6050.c ****         return status;
  63:Drivers/BSP/mpu6050/mpu6050.c ****     }
  64:Drivers/BSP/mpu6050/mpu6050.c ****     status = MPU6050_WriteByte(dev, ACCEL_CONFIG, c & ~0xE0); // Clear self-test bits [7:5]
  65:Drivers/BSP/mpu6050/mpu6050.c ****     if (status != MPU6050_ERROR_NONE)
  66:Drivers/BSP/mpu6050/mpu6050.c ****     {
  67:Drivers/BSP/mpu6050/mpu6050.c ****         return status;
  68:Drivers/BSP/mpu6050/mpu6050.c ****     }
  69:Drivers/BSP/mpu6050/mpu6050.c ****     status = MPU6050_WriteByte(dev, ACCEL_CONFIG, c & ~0x18); // Clear AFS bits [4:3]
  70:Drivers/BSP/mpu6050/mpu6050.c ****     if (status != MPU6050_ERROR_NONE)
  71:Drivers/BSP/mpu6050/mpu6050.c ****     {
  72:Drivers/BSP/mpu6050/mpu6050.c ****         return status;
  73:Drivers/BSP/mpu6050/mpu6050.c ****     }
  74:Drivers/BSP/mpu6050/mpu6050.c ****     status = MPU6050_WriteByte(dev, ACCEL_CONFIG, c | dev->Data.ascale << 3); // Set full scale ran
  75:Drivers/BSP/mpu6050/mpu6050.c ****     if (status != MPU6050_ERROR_NONE)
  76:Drivers/BSP/mpu6050/mpu6050.c ****     {
  77:Drivers/BSP/mpu6050/mpu6050.c ****         return status;
  78:Drivers/BSP/mpu6050/mpu6050.c ****     }
  79:Drivers/BSP/mpu6050/mpu6050.c **** 
  80:Drivers/BSP/mpu6050/mpu6050.c ****     // Configure Interrupts and Bypass Enable
  81:Drivers/BSP/mpu6050/mpu6050.c ****     // Set interrupt pin active high, push-pull, and clear on read of INT_STATUS, enable I2C_BYPASS
  82:Drivers/BSP/mpu6050/mpu6050.c ****     // can join the I2C bus and all can be controlled by the Arduino as master
  83:Drivers/BSP/mpu6050/mpu6050.c ****     //status = MPU6050_WriteByte(dev, INT_PIN_CFG, 0x02);
  84:Drivers/BSP/mpu6050/mpu6050.c **** 
  85:Drivers/BSP/mpu6050/mpu6050.c ****     status = MPU6050_SetIntMotionEnabled(dev, 1); //Set Motion Detection interrupt enabled status.
  86:Drivers/BSP/mpu6050/mpu6050.c ****     if (status != MPU6050_ERROR_NONE)
  87:Drivers/BSP/mpu6050/mpu6050.c ****     {
  88:Drivers/BSP/mpu6050/mpu6050.c ****         return status;
ARM GAS  C:\Users\jsauerer\AppData\Local\Temp\ccDLNG3v.s 			page 3


  89:Drivers/BSP/mpu6050/mpu6050.c ****     }
  90:Drivers/BSP/mpu6050/mpu6050.c ****     status = MPU6050_SetIntFreefallEnabled(dev, 1);
  91:Drivers/BSP/mpu6050/mpu6050.c ****     if (status != MPU6050_ERROR_NONE)
  92:Drivers/BSP/mpu6050/mpu6050.c ****     {
  93:Drivers/BSP/mpu6050/mpu6050.c ****         return status;
  94:Drivers/BSP/mpu6050/mpu6050.c ****     }
  95:Drivers/BSP/mpu6050/mpu6050.c ****     status = MPU6050_SetIntZeroMotionEnabled(dev, 0);
  96:Drivers/BSP/mpu6050/mpu6050.c ****     if (status != MPU6050_ERROR_NONE)
  97:Drivers/BSP/mpu6050/mpu6050.c ****     {
  98:Drivers/BSP/mpu6050/mpu6050.c ****         return status;
  99:Drivers/BSP/mpu6050/mpu6050.c ****     }
 100:Drivers/BSP/mpu6050/mpu6050.c ****     status = MPU6050_SetIntFIFOBufferOverflowEnabled(dev, 0);
 101:Drivers/BSP/mpu6050/mpu6050.c ****     if (status != MPU6050_ERROR_NONE)
 102:Drivers/BSP/mpu6050/mpu6050.c ****     {
 103:Drivers/BSP/mpu6050/mpu6050.c ****         return status;
 104:Drivers/BSP/mpu6050/mpu6050.c ****     }
 105:Drivers/BSP/mpu6050/mpu6050.c ****     status = MPU6050_SetIntDataReadyEnabled(dev, 0); //New interrupt enabled status
 106:Drivers/BSP/mpu6050/mpu6050.c ****     if (status != MPU6050_ERROR_NONE)
 107:Drivers/BSP/mpu6050/mpu6050.c ****     {
 108:Drivers/BSP/mpu6050/mpu6050.c ****         return status;
 109:Drivers/BSP/mpu6050/mpu6050.c ****     }
 110:Drivers/BSP/mpu6050/mpu6050.c ****     status = MPU6050_SetDHPFMode(dev, 0); //New high-pass filter configuration more than 1.25Hz pas
 111:Drivers/BSP/mpu6050/mpu6050.c ****     if (status != MPU6050_ERROR_NONE)
 112:Drivers/BSP/mpu6050/mpu6050.c ****     {
 113:Drivers/BSP/mpu6050/mpu6050.c ****         return status;
 114:Drivers/BSP/mpu6050/mpu6050.c ****     }
 115:Drivers/BSP/mpu6050/mpu6050.c ****     status = MPU6050_SetDLPFMode(dev, 0);
 116:Drivers/BSP/mpu6050/mpu6050.c ****     if (status != MPU6050_ERROR_NONE)
 117:Drivers/BSP/mpu6050/mpu6050.c ****     {
 118:Drivers/BSP/mpu6050/mpu6050.c ****         return status;
 119:Drivers/BSP/mpu6050/mpu6050.c ****     }
 120:Drivers/BSP/mpu6050/mpu6050.c ****     status = MPU6050_SetMotionDetectionThreshold(dev, 5); //20 - 2
 121:Drivers/BSP/mpu6050/mpu6050.c ****     if (status != MPU6050_ERROR_NONE)
 122:Drivers/BSP/mpu6050/mpu6050.c ****     {
 123:Drivers/BSP/mpu6050/mpu6050.c ****         return status;
 124:Drivers/BSP/mpu6050/mpu6050.c ****     }
 125:Drivers/BSP/mpu6050/mpu6050.c ****     status = MPU6050_SetMotionDetectionDuration(dev, 1); //New motion detection duration threshold 
 126:Drivers/BSP/mpu6050/mpu6050.c ****     if (status != MPU6050_ERROR_NONE)
 127:Drivers/BSP/mpu6050/mpu6050.c ****     {
 128:Drivers/BSP/mpu6050/mpu6050.c ****         return status;
 129:Drivers/BSP/mpu6050/mpu6050.c ****     }
 130:Drivers/BSP/mpu6050/mpu6050.c ****     status = MPU6050_SetInterruptMode(dev, 1); //New interrupt mode (0=active-high, 1=active-low)
 131:Drivers/BSP/mpu6050/mpu6050.c ****     if (status != MPU6050_ERROR_NONE)
 132:Drivers/BSP/mpu6050/mpu6050.c ****     {
 133:Drivers/BSP/mpu6050/mpu6050.c ****         return status;
 134:Drivers/BSP/mpu6050/mpu6050.c ****     }
 135:Drivers/BSP/mpu6050/mpu6050.c ****     status = MPU6050_SetInterruptDrive(dev, 0); //New interrupt drive mode (0=push-pull, 1=open-dra
 136:Drivers/BSP/mpu6050/mpu6050.c ****     if (status != MPU6050_ERROR_NONE)
 137:Drivers/BSP/mpu6050/mpu6050.c ****     {
 138:Drivers/BSP/mpu6050/mpu6050.c ****         return status;
 139:Drivers/BSP/mpu6050/mpu6050.c ****     }
 140:Drivers/BSP/mpu6050/mpu6050.c ****     status = MPU6050_SetInterruptLatch(dev, 0); //New latch mode (0=50us-pulse, 1=latch-until-int-c
 141:Drivers/BSP/mpu6050/mpu6050.c ****     if (status != MPU6050_ERROR_NONE)
 142:Drivers/BSP/mpu6050/mpu6050.c ****     {
 143:Drivers/BSP/mpu6050/mpu6050.c ****         return status;
 144:Drivers/BSP/mpu6050/mpu6050.c ****     }
 145:Drivers/BSP/mpu6050/mpu6050.c ****     status = MPU6050_SetInterruptLatchClear(dev, 1); //New latch clear mode (0=status-read-only, 1=
ARM GAS  C:\Users\jsauerer\AppData\Local\Temp\ccDLNG3v.s 			page 4


 146:Drivers/BSP/mpu6050/mpu6050.c ****     if (status != MPU6050_ERROR_NONE)
 147:Drivers/BSP/mpu6050/mpu6050.c ****     {
 148:Drivers/BSP/mpu6050/mpu6050.c ****         return status;
 149:Drivers/BSP/mpu6050/mpu6050.c ****     }
 150:Drivers/BSP/mpu6050/mpu6050.c ****     status = MPU6050_SetRate(dev, 7); //Set the rate to disable the gyroscope
 151:Drivers/BSP/mpu6050/mpu6050.c ****     if (status != MPU6050_ERROR_NONE)
 152:Drivers/BSP/mpu6050/mpu6050.c ****     {
 153:Drivers/BSP/mpu6050/mpu6050.c ****         return status;
 154:Drivers/BSP/mpu6050/mpu6050.c ****     }
 155:Drivers/BSP/mpu6050/mpu6050.c ****     status = MPU6050_SetWakeFrequency(dev, 0); //Wake up the accelerometer at 1.25Hz to save power
 156:Drivers/BSP/mpu6050/mpu6050.c ****     if (status != MPU6050_ERROR_NONE)
 157:Drivers/BSP/mpu6050/mpu6050.c ****     {
 158:Drivers/BSP/mpu6050/mpu6050.c ****         return status;
 159:Drivers/BSP/mpu6050/mpu6050.c ****     }
 160:Drivers/BSP/mpu6050/mpu6050.c ****     status = MPU6050_SetWakeCycleEnabled(dev, 1); //Enable only accel. ON - Low power mode, waking 
 161:Drivers/BSP/mpu6050/mpu6050.c ****     if (status != MPU6050_ERROR_NONE)
 162:Drivers/BSP/mpu6050/mpu6050.c ****     {
 163:Drivers/BSP/mpu6050/mpu6050.c ****         return status;
 164:Drivers/BSP/mpu6050/mpu6050.c ****     }
 165:Drivers/BSP/mpu6050/mpu6050.c **** 
 166:Drivers/BSP/mpu6050/mpu6050.c ****     MPU6050_Delay(50);
 167:Drivers/BSP/mpu6050/mpu6050.c **** 
 168:Drivers/BSP/mpu6050/mpu6050.c ****     status = MPU6050_SetTempSensorEnabled(dev, 0); //Disable tmp sensor
 169:Drivers/BSP/mpu6050/mpu6050.c ****     if (status != MPU6050_ERROR_NONE)
 170:Drivers/BSP/mpu6050/mpu6050.c ****     {
 171:Drivers/BSP/mpu6050/mpu6050.c ****         return status;
 172:Drivers/BSP/mpu6050/mpu6050.c ****     }
 173:Drivers/BSP/mpu6050/mpu6050.c ****     status = MPU6050_SetStandbyXGyroEnabled(dev, 1); //Disable GyroX
 174:Drivers/BSP/mpu6050/mpu6050.c ****     if (status != MPU6050_ERROR_NONE)
 175:Drivers/BSP/mpu6050/mpu6050.c ****     {
 176:Drivers/BSP/mpu6050/mpu6050.c ****         return status;
 177:Drivers/BSP/mpu6050/mpu6050.c ****     }
 178:Drivers/BSP/mpu6050/mpu6050.c ****     status = MPU6050_SetStandbyYGyroEnabled(dev, 1); //Disable GyroY
 179:Drivers/BSP/mpu6050/mpu6050.c ****     if (status != MPU6050_ERROR_NONE)
 180:Drivers/BSP/mpu6050/mpu6050.c ****     {
 181:Drivers/BSP/mpu6050/mpu6050.c ****         return status;
 182:Drivers/BSP/mpu6050/mpu6050.c ****     }
 183:Drivers/BSP/mpu6050/mpu6050.c ****     status = MPU6050_SetStandbyZGyroEnabled(dev, 1); //Disable GyroZ
 184:Drivers/BSP/mpu6050/mpu6050.c ****     if (status != MPU6050_ERROR_NONE)
 185:Drivers/BSP/mpu6050/mpu6050.c ****     {
 186:Drivers/BSP/mpu6050/mpu6050.c ****         return status;
 187:Drivers/BSP/mpu6050/mpu6050.c ****     }
 188:Drivers/BSP/mpu6050/mpu6050.c **** 
 189:Drivers/BSP/mpu6050/mpu6050.c ****     return status;
 190:Drivers/BSP/mpu6050/mpu6050.c **** }
 191:Drivers/BSP/mpu6050/mpu6050.c **** 
 192:Drivers/BSP/mpu6050/mpu6050.c **** MPU6050_Error MPU6050_ReadAcc(MPU6050_DEV dev, int16_t acc[3])
 193:Drivers/BSP/mpu6050/mpu6050.c **** {
  28              		.loc 1 193 1 view -0
  29              		.cfi_startproc
  30              		@ args = 0, pretend = 0, frame = 8
  31              		@ frame_needed = 0, uses_anonymous_args = 0
  32              		.loc 1 193 1 is_stmt 0 view .LVU1
  33 0000 10B5     		push	{r4, lr}
  34              	.LCFI0:
  35              		.cfi_def_cfa_offset 8
  36              		.cfi_offset 4, -8
ARM GAS  C:\Users\jsauerer\AppData\Local\Temp\ccDLNG3v.s 			page 5


  37              		.cfi_offset 14, -4
  38 0002 82B0     		sub	sp, sp, #8
  39              	.LCFI1:
  40              		.cfi_def_cfa_offset 16
  41 0004 0C46     		mov	r4, r1
 194:Drivers/BSP/mpu6050/mpu6050.c ****     uint8_t rawData[6];                                                          // x/y/z accel reg
  42              		.loc 1 194 5 is_stmt 1 view .LVU2
 195:Drivers/BSP/mpu6050/mpu6050.c ****     MPU6050_Error status = MPU6050_ReadBytes(dev, ACCEL_XOUT_H, &rawData[0], 6); // Read the six ra
  43              		.loc 1 195 5 view .LVU3
  44              		.loc 1 195 28 is_stmt 0 view .LVU4
  45 0006 0623     		movs	r3, #6
  46 0008 6A46     		mov	r2, sp
  47 000a 3B21     		movs	r1, #59
  48              	.LVL1:
  49              		.loc 1 195 28 view .LVU5
  50 000c FFF7FEFF 		bl	MPU6050_ReadBytes
  51              	.LVL2:
 196:Drivers/BSP/mpu6050/mpu6050.c ****     if (status != MPU6050_ERROR_NONE)
  52              		.loc 1 196 5 is_stmt 1 view .LVU6
  53              		.loc 1 196 8 is_stmt 0 view .LVU7
  54 0010 A0B9     		cbnz	r0, .L2
 197:Drivers/BSP/mpu6050/mpu6050.c ****     {
 198:Drivers/BSP/mpu6050/mpu6050.c ****         return status;
 199:Drivers/BSP/mpu6050/mpu6050.c ****     }
 200:Drivers/BSP/mpu6050/mpu6050.c ****     acc[0] = (int16_t)((rawData[0] << 8) | rawData[1]); // Turn the MSB and LSB into a signed 16-bi
  55              		.loc 1 200 5 is_stmt 1 view .LVU8
  56              		.loc 1 200 32 is_stmt 0 view .LVU9
  57 0012 9DF80020 		ldrb	r2, [sp]	@ zero_extendqisi2
  58              		.loc 1 200 51 view .LVU10
  59 0016 9DF80130 		ldrb	r3, [sp, #1]	@ zero_extendqisi2
  60              		.loc 1 200 14 view .LVU11
  61 001a 43EA0223 		orr	r3, r3, r2, lsl #8
  62              		.loc 1 200 12 view .LVU12
  63 001e 2380     		strh	r3, [r4]	@ movhi
 201:Drivers/BSP/mpu6050/mpu6050.c ****     acc[1] = (int16_t)((rawData[2] << 8) | rawData[3]);
  64              		.loc 1 201 5 is_stmt 1 view .LVU13
  65              		.loc 1 201 32 is_stmt 0 view .LVU14
  66 0020 9DF80220 		ldrb	r2, [sp, #2]	@ zero_extendqisi2
  67              		.loc 1 201 51 view .LVU15
  68 0024 9DF80330 		ldrb	r3, [sp, #3]	@ zero_extendqisi2
  69              		.loc 1 201 14 view .LVU16
  70 0028 43EA0223 		orr	r3, r3, r2, lsl #8
  71              		.loc 1 201 12 view .LVU17
  72 002c 6380     		strh	r3, [r4, #2]	@ movhi
 202:Drivers/BSP/mpu6050/mpu6050.c ****     acc[2] = (int16_t)((rawData[4] << 8) | rawData[5]);
  73              		.loc 1 202 5 is_stmt 1 view .LVU18
  74              		.loc 1 202 32 is_stmt 0 view .LVU19
  75 002e 9DF80420 		ldrb	r2, [sp, #4]	@ zero_extendqisi2
  76              		.loc 1 202 51 view .LVU20
  77 0032 9DF80530 		ldrb	r3, [sp, #5]	@ zero_extendqisi2
  78              		.loc 1 202 14 view .LVU21
  79 0036 43EA0223 		orr	r3, r3, r2, lsl #8
  80              		.loc 1 202 12 view .LVU22
  81 003a A380     		strh	r3, [r4, #4]	@ movhi
 203:Drivers/BSP/mpu6050/mpu6050.c ****     return status;
  82              		.loc 1 203 5 is_stmt 1 view .LVU23
  83              	.L2:
ARM GAS  C:\Users\jsauerer\AppData\Local\Temp\ccDLNG3v.s 			page 6


 204:Drivers/BSP/mpu6050/mpu6050.c **** }
  84              		.loc 1 204 1 is_stmt 0 view .LVU24
  85 003c 02B0     		add	sp, sp, #8
  86              	.LCFI2:
  87              		.cfi_def_cfa_offset 8
  88              		@ sp needed
  89 003e 10BD     		pop	{r4, pc}
  90              		.loc 1 204 1 view .LVU25
  91              		.cfi_endproc
  92              	.LFE112:
  94              		.section	.text.MPU6050_SetIntMotionEnabled,"ax",%progbits
  95              		.align	1
  96              		.global	MPU6050_SetIntMotionEnabled
  97              		.syntax unified
  98              		.thumb
  99              		.thumb_func
 100              		.fpu softvfp
 102              	MPU6050_SetIntMotionEnabled:
 103              	.LVL3:
 104              	.LFB113:
 205:Drivers/BSP/mpu6050/mpu6050.c **** 
 206:Drivers/BSP/mpu6050/mpu6050.c **** MPU6050_Error MPU6050_SetIntMotionEnabled(MPU6050_DEV dev, bool enabled)
 207:Drivers/BSP/mpu6050/mpu6050.c **** {
 105              		.loc 1 207 1 is_stmt 1 view -0
 106              		.cfi_startproc
 107              		@ args = 0, pretend = 0, frame = 0
 108              		@ frame_needed = 0, uses_anonymous_args = 0
 109              		.loc 1 207 1 is_stmt 0 view .LVU27
 110 0000 08B5     		push	{r3, lr}
 111              	.LCFI3:
 112              		.cfi_def_cfa_offset 8
 113              		.cfi_offset 3, -8
 114              		.cfi_offset 14, -4
 115 0002 0B46     		mov	r3, r1
 208:Drivers/BSP/mpu6050/mpu6050.c ****     return MPU6050_WriteBit(dev, INT_ENABLE, INTERRUPT_MOT_BIT, enabled);
 116              		.loc 1 208 5 is_stmt 1 view .LVU28
 117              		.loc 1 208 12 is_stmt 0 view .LVU29
 118 0004 0622     		movs	r2, #6
 119 0006 3821     		movs	r1, #56
 120              	.LVL4:
 121              		.loc 1 208 12 view .LVU30
 122 0008 FFF7FEFF 		bl	MPU6050_WriteBit
 123              	.LVL5:
 209:Drivers/BSP/mpu6050/mpu6050.c **** }
 124              		.loc 1 209 1 view .LVU31
 125 000c 08BD     		pop	{r3, pc}
 126              		.cfi_endproc
 127              	.LFE113:
 129              		.section	.text.MPU6050_GetIntMotionEnabled,"ax",%progbits
 130              		.align	1
 131              		.global	MPU6050_GetIntMotionEnabled
 132              		.syntax unified
 133              		.thumb
 134              		.thumb_func
 135              		.fpu softvfp
 137              	MPU6050_GetIntMotionEnabled:
 138              	.LVL6:
ARM GAS  C:\Users\jsauerer\AppData\Local\Temp\ccDLNG3v.s 			page 7


 139              	.LFB114:
 210:Drivers/BSP/mpu6050/mpu6050.c **** 
 211:Drivers/BSP/mpu6050/mpu6050.c **** bool MPU6050_GetIntMotionEnabled(MPU6050_DEV dev)
 212:Drivers/BSP/mpu6050/mpu6050.c **** {
 140              		.loc 1 212 1 is_stmt 1 view -0
 141              		.cfi_startproc
 142              		@ args = 0, pretend = 0, frame = 8
 143              		@ frame_needed = 0, uses_anonymous_args = 0
 144              		.loc 1 212 1 is_stmt 0 view .LVU33
 145 0000 00B5     		push	{lr}
 146              	.LCFI4:
 147              		.cfi_def_cfa_offset 4
 148              		.cfi_offset 14, -4
 149 0002 83B0     		sub	sp, sp, #12
 150              	.LCFI5:
 151              		.cfi_def_cfa_offset 16
 213:Drivers/BSP/mpu6050/mpu6050.c ****     uint8_t enable = 0;
 152              		.loc 1 213 5 is_stmt 1 view .LVU34
 153              		.loc 1 213 13 is_stmt 0 view .LVU35
 154 0004 0023     		movs	r3, #0
 155 0006 8DF80730 		strb	r3, [sp, #7]
 214:Drivers/BSP/mpu6050/mpu6050.c ****     MPU6050_ReadBit(dev, INT_ENABLE, &enable, INTERRUPT_MOT_BIT);
 156              		.loc 1 214 5 is_stmt 1 view .LVU36
 157 000a 0623     		movs	r3, #6
 158 000c 0DF10702 		add	r2, sp, #7
 159 0010 3821     		movs	r1, #56
 160 0012 FFF7FEFF 		bl	MPU6050_ReadBit
 161              	.LVL7:
 215:Drivers/BSP/mpu6050/mpu6050.c ****     return enable;
 162              		.loc 1 215 5 view .LVU37
 163              		.loc 1 215 12 is_stmt 0 view .LVU38
 164 0016 9DF80700 		ldrb	r0, [sp, #7]	@ zero_extendqisi2
 216:Drivers/BSP/mpu6050/mpu6050.c **** }
 165              		.loc 1 216 1 view .LVU39
 166 001a 0038     		subs	r0, r0, #0
 167 001c 18BF     		it	ne
 168 001e 0120     		movne	r0, #1
 169 0020 03B0     		add	sp, sp, #12
 170              	.LCFI6:
 171              		.cfi_def_cfa_offset 4
 172              		@ sp needed
 173 0022 5DF804FB 		ldr	pc, [sp], #4
 174              		.cfi_endproc
 175              	.LFE114:
 177              		.section	.text.MPU6050_SetIntFreefallEnabled,"ax",%progbits
 178              		.align	1
 179              		.global	MPU6050_SetIntFreefallEnabled
 180              		.syntax unified
 181              		.thumb
 182              		.thumb_func
 183              		.fpu softvfp
 185              	MPU6050_SetIntFreefallEnabled:
 186              	.LVL8:
 187              	.LFB115:
 217:Drivers/BSP/mpu6050/mpu6050.c **** 
 218:Drivers/BSP/mpu6050/mpu6050.c **** MPU6050_Error MPU6050_SetIntFreefallEnabled(MPU6050_DEV dev, bool enabled)
 219:Drivers/BSP/mpu6050/mpu6050.c **** {
ARM GAS  C:\Users\jsauerer\AppData\Local\Temp\ccDLNG3v.s 			page 8


 188              		.loc 1 219 1 is_stmt 1 view -0
 189              		.cfi_startproc
 190              		@ args = 0, pretend = 0, frame = 0
 191              		@ frame_needed = 0, uses_anonymous_args = 0
 192              		.loc 1 219 1 is_stmt 0 view .LVU41
 193 0000 08B5     		push	{r3, lr}
 194              	.LCFI7:
 195              		.cfi_def_cfa_offset 8
 196              		.cfi_offset 3, -8
 197              		.cfi_offset 14, -4
 198 0002 0B46     		mov	r3, r1
 220:Drivers/BSP/mpu6050/mpu6050.c ****     return MPU6050_WriteBit(dev, INT_ENABLE, INTERRUPT_FF_BIT, enabled);
 199              		.loc 1 220 5 is_stmt 1 view .LVU42
 200              		.loc 1 220 12 is_stmt 0 view .LVU43
 201 0004 0722     		movs	r2, #7
 202 0006 3821     		movs	r1, #56
 203              	.LVL9:
 204              		.loc 1 220 12 view .LVU44
 205 0008 FFF7FEFF 		bl	MPU6050_WriteBit
 206              	.LVL10:
 221:Drivers/BSP/mpu6050/mpu6050.c **** }
 207              		.loc 1 221 1 view .LVU45
 208 000c 08BD     		pop	{r3, pc}
 209              		.cfi_endproc
 210              	.LFE115:
 212              		.section	.text.MPU6050_GetIntFreefallEnabled,"ax",%progbits
 213              		.align	1
 214              		.global	MPU6050_GetIntFreefallEnabled
 215              		.syntax unified
 216              		.thumb
 217              		.thumb_func
 218              		.fpu softvfp
 220              	MPU6050_GetIntFreefallEnabled:
 221              	.LVL11:
 222              	.LFB116:
 222:Drivers/BSP/mpu6050/mpu6050.c **** 
 223:Drivers/BSP/mpu6050/mpu6050.c **** bool MPU6050_GetIntFreefallEnabled(MPU6050_DEV dev)
 224:Drivers/BSP/mpu6050/mpu6050.c **** {
 223              		.loc 1 224 1 is_stmt 1 view -0
 224              		.cfi_startproc
 225              		@ args = 0, pretend = 0, frame = 8
 226              		@ frame_needed = 0, uses_anonymous_args = 0
 227              		.loc 1 224 1 is_stmt 0 view .LVU47
 228 0000 00B5     		push	{lr}
 229              	.LCFI8:
 230              		.cfi_def_cfa_offset 4
 231              		.cfi_offset 14, -4
 232 0002 83B0     		sub	sp, sp, #12
 233              	.LCFI9:
 234              		.cfi_def_cfa_offset 16
 225:Drivers/BSP/mpu6050/mpu6050.c ****     uint8_t enable = 0;
 235              		.loc 1 225 5 is_stmt 1 view .LVU48
 236              		.loc 1 225 13 is_stmt 0 view .LVU49
 237 0004 0023     		movs	r3, #0
 238 0006 8DF80730 		strb	r3, [sp, #7]
 226:Drivers/BSP/mpu6050/mpu6050.c ****     MPU6050_ReadBit(dev, INT_ENABLE, &enable, INTERRUPT_FF_BIT);
 239              		.loc 1 226 5 is_stmt 1 view .LVU50
ARM GAS  C:\Users\jsauerer\AppData\Local\Temp\ccDLNG3v.s 			page 9


 240 000a 0723     		movs	r3, #7
 241 000c 0DEB0302 		add	r2, sp, r3
 242 0010 3821     		movs	r1, #56
 243 0012 FFF7FEFF 		bl	MPU6050_ReadBit
 244              	.LVL12:
 227:Drivers/BSP/mpu6050/mpu6050.c ****     return enable;
 245              		.loc 1 227 5 view .LVU51
 246              		.loc 1 227 12 is_stmt 0 view .LVU52
 247 0016 9DF80700 		ldrb	r0, [sp, #7]	@ zero_extendqisi2
 228:Drivers/BSP/mpu6050/mpu6050.c **** }
 248              		.loc 1 228 1 view .LVU53
 249 001a 0038     		subs	r0, r0, #0
 250 001c 18BF     		it	ne
 251 001e 0120     		movne	r0, #1
 252 0020 03B0     		add	sp, sp, #12
 253              	.LCFI10:
 254              		.cfi_def_cfa_offset 4
 255              		@ sp needed
 256 0022 5DF804FB 		ldr	pc, [sp], #4
 257              		.cfi_endproc
 258              	.LFE116:
 260              		.section	.text.MPU6050_SetIntZeroMotionEnabled,"ax",%progbits
 261              		.align	1
 262              		.global	MPU6050_SetIntZeroMotionEnabled
 263              		.syntax unified
 264              		.thumb
 265              		.thumb_func
 266              		.fpu softvfp
 268              	MPU6050_SetIntZeroMotionEnabled:
 269              	.LVL13:
 270              	.LFB117:
 229:Drivers/BSP/mpu6050/mpu6050.c **** 
 230:Drivers/BSP/mpu6050/mpu6050.c **** MPU6050_Error MPU6050_SetIntZeroMotionEnabled(MPU6050_DEV dev, bool enabled)
 231:Drivers/BSP/mpu6050/mpu6050.c **** {
 271              		.loc 1 231 1 is_stmt 1 view -0
 272              		.cfi_startproc
 273              		@ args = 0, pretend = 0, frame = 0
 274              		@ frame_needed = 0, uses_anonymous_args = 0
 275              		.loc 1 231 1 is_stmt 0 view .LVU55
 276 0000 08B5     		push	{r3, lr}
 277              	.LCFI11:
 278              		.cfi_def_cfa_offset 8
 279              		.cfi_offset 3, -8
 280              		.cfi_offset 14, -4
 281 0002 0B46     		mov	r3, r1
 232:Drivers/BSP/mpu6050/mpu6050.c ****     return MPU6050_WriteBit(dev, INT_ENABLE, INTERRUPT_ZMOT_BIT, enabled);
 282              		.loc 1 232 5 is_stmt 1 view .LVU56
 283              		.loc 1 232 12 is_stmt 0 view .LVU57
 284 0004 0522     		movs	r2, #5
 285 0006 3821     		movs	r1, #56
 286              	.LVL14:
 287              		.loc 1 232 12 view .LVU58
 288 0008 FFF7FEFF 		bl	MPU6050_WriteBit
 289              	.LVL15:
 233:Drivers/BSP/mpu6050/mpu6050.c **** }
 290              		.loc 1 233 1 view .LVU59
 291 000c 08BD     		pop	{r3, pc}
ARM GAS  C:\Users\jsauerer\AppData\Local\Temp\ccDLNG3v.s 			page 10


 292              		.cfi_endproc
 293              	.LFE117:
 295              		.section	.text.MPU6050_GetIntZeroMotionEnabled,"ax",%progbits
 296              		.align	1
 297              		.global	MPU6050_GetIntZeroMotionEnabled
 298              		.syntax unified
 299              		.thumb
 300              		.thumb_func
 301              		.fpu softvfp
 303              	MPU6050_GetIntZeroMotionEnabled:
 304              	.LVL16:
 305              	.LFB118:
 234:Drivers/BSP/mpu6050/mpu6050.c **** 
 235:Drivers/BSP/mpu6050/mpu6050.c **** bool MPU6050_GetIntZeroMotionEnabled(MPU6050_DEV dev)
 236:Drivers/BSP/mpu6050/mpu6050.c **** {
 306              		.loc 1 236 1 is_stmt 1 view -0
 307              		.cfi_startproc
 308              		@ args = 0, pretend = 0, frame = 8
 309              		@ frame_needed = 0, uses_anonymous_args = 0
 310              		.loc 1 236 1 is_stmt 0 view .LVU61
 311 0000 00B5     		push	{lr}
 312              	.LCFI12:
 313              		.cfi_def_cfa_offset 4
 314              		.cfi_offset 14, -4
 315 0002 83B0     		sub	sp, sp, #12
 316              	.LCFI13:
 317              		.cfi_def_cfa_offset 16
 237:Drivers/BSP/mpu6050/mpu6050.c ****     uint8_t enable = 0;
 318              		.loc 1 237 5 is_stmt 1 view .LVU62
 319              		.loc 1 237 13 is_stmt 0 view .LVU63
 320 0004 0023     		movs	r3, #0
 321 0006 8DF80730 		strb	r3, [sp, #7]
 238:Drivers/BSP/mpu6050/mpu6050.c ****     MPU6050_ReadBit(dev, INT_ENABLE, &enable, INTERRUPT_ZMOT_BIT);
 322              		.loc 1 238 5 is_stmt 1 view .LVU64
 323 000a 0523     		movs	r3, #5
 324 000c 0DF10702 		add	r2, sp, #7
 325 0010 3821     		movs	r1, #56
 326 0012 FFF7FEFF 		bl	MPU6050_ReadBit
 327              	.LVL17:
 239:Drivers/BSP/mpu6050/mpu6050.c ****     return enable;
 328              		.loc 1 239 5 view .LVU65
 329              		.loc 1 239 12 is_stmt 0 view .LVU66
 330 0016 9DF80700 		ldrb	r0, [sp, #7]	@ zero_extendqisi2
 240:Drivers/BSP/mpu6050/mpu6050.c **** }
 331              		.loc 1 240 1 view .LVU67
 332 001a 0038     		subs	r0, r0, #0
 333 001c 18BF     		it	ne
 334 001e 0120     		movne	r0, #1
 335 0020 03B0     		add	sp, sp, #12
 336              	.LCFI14:
 337              		.cfi_def_cfa_offset 4
 338              		@ sp needed
 339 0022 5DF804FB 		ldr	pc, [sp], #4
 340              		.cfi_endproc
 341              	.LFE118:
 343              		.section	.text.MPU6050_SetIntFIFOBufferOverflowEnabled,"ax",%progbits
 344              		.align	1
ARM GAS  C:\Users\jsauerer\AppData\Local\Temp\ccDLNG3v.s 			page 11


 345              		.global	MPU6050_SetIntFIFOBufferOverflowEnabled
 346              		.syntax unified
 347              		.thumb
 348              		.thumb_func
 349              		.fpu softvfp
 351              	MPU6050_SetIntFIFOBufferOverflowEnabled:
 352              	.LVL18:
 353              	.LFB119:
 241:Drivers/BSP/mpu6050/mpu6050.c **** 
 242:Drivers/BSP/mpu6050/mpu6050.c **** MPU6050_Error MPU6050_SetIntFIFOBufferOverflowEnabled(MPU6050_DEV dev, bool enabled)
 243:Drivers/BSP/mpu6050/mpu6050.c **** {
 354              		.loc 1 243 1 is_stmt 1 view -0
 355              		.cfi_startproc
 356              		@ args = 0, pretend = 0, frame = 0
 357              		@ frame_needed = 0, uses_anonymous_args = 0
 358              		.loc 1 243 1 is_stmt 0 view .LVU69
 359 0000 08B5     		push	{r3, lr}
 360              	.LCFI15:
 361              		.cfi_def_cfa_offset 8
 362              		.cfi_offset 3, -8
 363              		.cfi_offset 14, -4
 364 0002 0B46     		mov	r3, r1
 244:Drivers/BSP/mpu6050/mpu6050.c ****     return MPU6050_WriteBit(dev, INT_ENABLE, INTERRUPT_FIFO_OFLOW_BIT, enabled);
 365              		.loc 1 244 5 is_stmt 1 view .LVU70
 366              		.loc 1 244 12 is_stmt 0 view .LVU71
 367 0004 0422     		movs	r2, #4
 368 0006 3821     		movs	r1, #56
 369              	.LVL19:
 370              		.loc 1 244 12 view .LVU72
 371 0008 FFF7FEFF 		bl	MPU6050_WriteBit
 372              	.LVL20:
 245:Drivers/BSP/mpu6050/mpu6050.c **** }
 373              		.loc 1 245 1 view .LVU73
 374 000c 08BD     		pop	{r3, pc}
 375              		.cfi_endproc
 376              	.LFE119:
 378              		.section	.text.MPU6050_GetIntFIFOBufferOverflowEnabled,"ax",%progbits
 379              		.align	1
 380              		.global	MPU6050_GetIntFIFOBufferOverflowEnabled
 381              		.syntax unified
 382              		.thumb
 383              		.thumb_func
 384              		.fpu softvfp
 386              	MPU6050_GetIntFIFOBufferOverflowEnabled:
 387              	.LVL21:
 388              	.LFB120:
 246:Drivers/BSP/mpu6050/mpu6050.c **** 
 247:Drivers/BSP/mpu6050/mpu6050.c **** bool MPU6050_GetIntFIFOBufferOverflowEnabled(MPU6050_DEV dev)
 248:Drivers/BSP/mpu6050/mpu6050.c **** {
 389              		.loc 1 248 1 is_stmt 1 view -0
 390              		.cfi_startproc
 391              		@ args = 0, pretend = 0, frame = 8
 392              		@ frame_needed = 0, uses_anonymous_args = 0
 393              		.loc 1 248 1 is_stmt 0 view .LVU75
 394 0000 00B5     		push	{lr}
 395              	.LCFI16:
 396              		.cfi_def_cfa_offset 4
ARM GAS  C:\Users\jsauerer\AppData\Local\Temp\ccDLNG3v.s 			page 12


 397              		.cfi_offset 14, -4
 398 0002 83B0     		sub	sp, sp, #12
 399              	.LCFI17:
 400              		.cfi_def_cfa_offset 16
 249:Drivers/BSP/mpu6050/mpu6050.c ****     uint8_t enable = 0;
 401              		.loc 1 249 5 is_stmt 1 view .LVU76
 402              		.loc 1 249 13 is_stmt 0 view .LVU77
 403 0004 0023     		movs	r3, #0
 404 0006 8DF80730 		strb	r3, [sp, #7]
 250:Drivers/BSP/mpu6050/mpu6050.c ****     MPU6050_ReadBit(dev, INT_ENABLE, &enable, INTERRUPT_FIFO_OFLOW_BIT);
 405              		.loc 1 250 5 is_stmt 1 view .LVU78
 406 000a 0423     		movs	r3, #4
 407 000c 0DF10702 		add	r2, sp, #7
 408 0010 3821     		movs	r1, #56
 409 0012 FFF7FEFF 		bl	MPU6050_ReadBit
 410              	.LVL22:
 251:Drivers/BSP/mpu6050/mpu6050.c ****     return enable;
 411              		.loc 1 251 5 view .LVU79
 412              		.loc 1 251 12 is_stmt 0 view .LVU80
 413 0016 9DF80700 		ldrb	r0, [sp, #7]	@ zero_extendqisi2
 252:Drivers/BSP/mpu6050/mpu6050.c **** }
 414              		.loc 1 252 1 view .LVU81
 415 001a 0038     		subs	r0, r0, #0
 416 001c 18BF     		it	ne
 417 001e 0120     		movne	r0, #1
 418 0020 03B0     		add	sp, sp, #12
 419              	.LCFI18:
 420              		.cfi_def_cfa_offset 4
 421              		@ sp needed
 422 0022 5DF804FB 		ldr	pc, [sp], #4
 423              		.cfi_endproc
 424              	.LFE120:
 426              		.section	.text.MPU6050_SetIntDataReadyEnabled,"ax",%progbits
 427              		.align	1
 428              		.global	MPU6050_SetIntDataReadyEnabled
 429              		.syntax unified
 430              		.thumb
 431              		.thumb_func
 432              		.fpu softvfp
 434              	MPU6050_SetIntDataReadyEnabled:
 435              	.LVL23:
 436              	.LFB121:
 253:Drivers/BSP/mpu6050/mpu6050.c **** 
 254:Drivers/BSP/mpu6050/mpu6050.c **** MPU6050_Error MPU6050_SetIntDataReadyEnabled(MPU6050_DEV dev, bool enabled)
 255:Drivers/BSP/mpu6050/mpu6050.c **** {
 437              		.loc 1 255 1 is_stmt 1 view -0
 438              		.cfi_startproc
 439              		@ args = 0, pretend = 0, frame = 0
 440              		@ frame_needed = 0, uses_anonymous_args = 0
 441              		.loc 1 255 1 is_stmt 0 view .LVU83
 442 0000 08B5     		push	{r3, lr}
 443              	.LCFI19:
 444              		.cfi_def_cfa_offset 8
 445              		.cfi_offset 3, -8
 446              		.cfi_offset 14, -4
 447 0002 0B46     		mov	r3, r1
 256:Drivers/BSP/mpu6050/mpu6050.c ****     return MPU6050_WriteBit(dev, INT_ENABLE, INTERRUPT_DATA_RDY_BIT, enabled);
ARM GAS  C:\Users\jsauerer\AppData\Local\Temp\ccDLNG3v.s 			page 13


 448              		.loc 1 256 5 is_stmt 1 view .LVU84
 449              		.loc 1 256 12 is_stmt 0 view .LVU85
 450 0004 0022     		movs	r2, #0
 451 0006 3821     		movs	r1, #56
 452              	.LVL24:
 453              		.loc 1 256 12 view .LVU86
 454 0008 FFF7FEFF 		bl	MPU6050_WriteBit
 455              	.LVL25:
 257:Drivers/BSP/mpu6050/mpu6050.c **** }
 456              		.loc 1 257 1 view .LVU87
 457 000c 08BD     		pop	{r3, pc}
 458              		.cfi_endproc
 459              	.LFE121:
 461              		.section	.text.MPU6050_GetIntDataReadyEnabled,"ax",%progbits
 462              		.align	1
 463              		.global	MPU6050_GetIntDataReadyEnabled
 464              		.syntax unified
 465              		.thumb
 466              		.thumb_func
 467              		.fpu softvfp
 469              	MPU6050_GetIntDataReadyEnabled:
 470              	.LVL26:
 471              	.LFB122:
 258:Drivers/BSP/mpu6050/mpu6050.c **** 
 259:Drivers/BSP/mpu6050/mpu6050.c **** bool MPU6050_GetIntDataReadyEnabled(MPU6050_DEV dev)
 260:Drivers/BSP/mpu6050/mpu6050.c **** {
 472              		.loc 1 260 1 is_stmt 1 view -0
 473              		.cfi_startproc
 474              		@ args = 0, pretend = 0, frame = 8
 475              		@ frame_needed = 0, uses_anonymous_args = 0
 476              		.loc 1 260 1 is_stmt 0 view .LVU89
 477 0000 00B5     		push	{lr}
 478              	.LCFI20:
 479              		.cfi_def_cfa_offset 4
 480              		.cfi_offset 14, -4
 481 0002 83B0     		sub	sp, sp, #12
 482              	.LCFI21:
 483              		.cfi_def_cfa_offset 16
 261:Drivers/BSP/mpu6050/mpu6050.c ****     uint8_t enable = 0;
 484              		.loc 1 261 5 is_stmt 1 view .LVU90
 485              		.loc 1 261 13 is_stmt 0 view .LVU91
 486 0004 0023     		movs	r3, #0
 487 0006 8DF80730 		strb	r3, [sp, #7]
 262:Drivers/BSP/mpu6050/mpu6050.c ****     MPU6050_ReadBit(dev, INT_ENABLE, &enable, INTERRUPT_DATA_RDY_BIT);
 488              		.loc 1 262 5 is_stmt 1 view .LVU92
 489 000a 0DF10702 		add	r2, sp, #7
 490 000e 3821     		movs	r1, #56
 491 0010 FFF7FEFF 		bl	MPU6050_ReadBit
 492              	.LVL27:
 263:Drivers/BSP/mpu6050/mpu6050.c ****     return enable;
 493              		.loc 1 263 5 view .LVU93
 494              		.loc 1 263 12 is_stmt 0 view .LVU94
 495 0014 9DF80700 		ldrb	r0, [sp, #7]	@ zero_extendqisi2
 264:Drivers/BSP/mpu6050/mpu6050.c **** }
 496              		.loc 1 264 1 view .LVU95
 497 0018 0038     		subs	r0, r0, #0
 498 001a 18BF     		it	ne
ARM GAS  C:\Users\jsauerer\AppData\Local\Temp\ccDLNG3v.s 			page 14


 499 001c 0120     		movne	r0, #1
 500 001e 03B0     		add	sp, sp, #12
 501              	.LCFI22:
 502              		.cfi_def_cfa_offset 4
 503              		@ sp needed
 504 0020 5DF804FB 		ldr	pc, [sp], #4
 505              		.cfi_endproc
 506              	.LFE122:
 508              		.section	.text.MPU6050_SetDHPFMode,"ax",%progbits
 509              		.align	1
 510              		.global	MPU6050_SetDHPFMode
 511              		.syntax unified
 512              		.thumb
 513              		.thumb_func
 514              		.fpu softvfp
 516              	MPU6050_SetDHPFMode:
 517              	.LVL28:
 518              	.LFB123:
 265:Drivers/BSP/mpu6050/mpu6050.c **** 
 266:Drivers/BSP/mpu6050/mpu6050.c **** MPU6050_Error MPU6050_SetDHPFMode(MPU6050_DEV dev, uint8_t bandwidth)
 267:Drivers/BSP/mpu6050/mpu6050.c **** {
 519              		.loc 1 267 1 is_stmt 1 view -0
 520              		.cfi_startproc
 521              		@ args = 0, pretend = 0, frame = 0
 522              		@ frame_needed = 0, uses_anonymous_args = 0
 523              		.loc 1 267 1 is_stmt 0 view .LVU97
 524 0000 00B5     		push	{lr}
 525              	.LCFI23:
 526              		.cfi_def_cfa_offset 4
 527              		.cfi_offset 14, -4
 528 0002 83B0     		sub	sp, sp, #12
 529              	.LCFI24:
 530              		.cfi_def_cfa_offset 16
 268:Drivers/BSP/mpu6050/mpu6050.c ****     return MPU6050_WriteBits(dev, ACCEL_CONFIG, ACONFIG_ACCEL_HPF_BIT, ACONFIG_ACCEL_HPF_LENGTH, ba
 531              		.loc 1 268 5 is_stmt 1 view .LVU98
 532              		.loc 1 268 12 is_stmt 0 view .LVU99
 533 0004 0091     		str	r1, [sp]
 534 0006 0323     		movs	r3, #3
 535 0008 0222     		movs	r2, #2
 536 000a 1C21     		movs	r1, #28
 537              	.LVL29:
 538              		.loc 1 268 12 view .LVU100
 539 000c FFF7FEFF 		bl	MPU6050_WriteBits
 540              	.LVL30:
 269:Drivers/BSP/mpu6050/mpu6050.c **** }
 541              		.loc 1 269 1 view .LVU101
 542 0010 03B0     		add	sp, sp, #12
 543              	.LCFI25:
 544              		.cfi_def_cfa_offset 4
 545              		@ sp needed
 546 0012 5DF804FB 		ldr	pc, [sp], #4
 547              		.cfi_endproc
 548              	.LFE123:
 550              		.section	.text.MPU6050_GetDHPFMode,"ax",%progbits
 551              		.align	1
 552              		.global	MPU6050_GetDHPFMode
 553              		.syntax unified
ARM GAS  C:\Users\jsauerer\AppData\Local\Temp\ccDLNG3v.s 			page 15


 554              		.thumb
 555              		.thumb_func
 556              		.fpu softvfp
 558              	MPU6050_GetDHPFMode:
 559              	.LVL31:
 560              	.LFB124:
 270:Drivers/BSP/mpu6050/mpu6050.c **** 
 271:Drivers/BSP/mpu6050/mpu6050.c **** uint8_t MPU6050_GetDHPFMode(MPU6050_DEV dev)
 272:Drivers/BSP/mpu6050/mpu6050.c **** {
 561              		.loc 1 272 1 is_stmt 1 view -0
 562              		.cfi_startproc
 563              		@ args = 0, pretend = 0, frame = 8
 564              		@ frame_needed = 0, uses_anonymous_args = 0
 565              		.loc 1 272 1 is_stmt 0 view .LVU103
 566 0000 00B5     		push	{lr}
 567              	.LCFI26:
 568              		.cfi_def_cfa_offset 4
 569              		.cfi_offset 14, -4
 570 0002 85B0     		sub	sp, sp, #20
 571              	.LCFI27:
 572              		.cfi_def_cfa_offset 24
 273:Drivers/BSP/mpu6050/mpu6050.c ****     uint8_t data = 0;
 573              		.loc 1 273 5 is_stmt 1 view .LVU104
 574              		.loc 1 273 13 is_stmt 0 view .LVU105
 575 0004 0023     		movs	r3, #0
 576 0006 8DF80F30 		strb	r3, [sp, #15]
 274:Drivers/BSP/mpu6050/mpu6050.c ****     MPU6050_ReadBits(dev, ACCEL_CONFIG, &data, ACONFIG_ACCEL_HPF_BIT, ACONFIG_ACCEL_HPF_LENGTH);
 577              		.loc 1 274 5 is_stmt 1 view .LVU106
 578 000a 0323     		movs	r3, #3
 579 000c 0093     		str	r3, [sp]
 580 000e 0223     		movs	r3, #2
 581 0010 0DF10F02 		add	r2, sp, #15
 582 0014 1C21     		movs	r1, #28
 583 0016 FFF7FEFF 		bl	MPU6050_ReadBits
 584              	.LVL32:
 275:Drivers/BSP/mpu6050/mpu6050.c ****     return data;
 585              		.loc 1 275 5 view .LVU107
 276:Drivers/BSP/mpu6050/mpu6050.c **** }
 586              		.loc 1 276 1 is_stmt 0 view .LVU108
 587 001a 9DF80F00 		ldrb	r0, [sp, #15]	@ zero_extendqisi2
 588 001e 05B0     		add	sp, sp, #20
 589              	.LCFI28:
 590              		.cfi_def_cfa_offset 4
 591              		@ sp needed
 592 0020 5DF804FB 		ldr	pc, [sp], #4
 593              		.cfi_endproc
 594              	.LFE124:
 596              		.section	.text.MPU6050_SetDLPFMode,"ax",%progbits
 597              		.align	1
 598              		.global	MPU6050_SetDLPFMode
 599              		.syntax unified
 600              		.thumb
 601              		.thumb_func
 602              		.fpu softvfp
 604              	MPU6050_SetDLPFMode:
 605              	.LVL33:
 606              	.LFB125:
ARM GAS  C:\Users\jsauerer\AppData\Local\Temp\ccDLNG3v.s 			page 16


 277:Drivers/BSP/mpu6050/mpu6050.c **** 
 278:Drivers/BSP/mpu6050/mpu6050.c **** MPU6050_Error MPU6050_SetDLPFMode(MPU6050_DEV dev, uint8_t mode)
 279:Drivers/BSP/mpu6050/mpu6050.c **** {
 607              		.loc 1 279 1 is_stmt 1 view -0
 608              		.cfi_startproc
 609              		@ args = 0, pretend = 0, frame = 0
 610              		@ frame_needed = 0, uses_anonymous_args = 0
 611              		.loc 1 279 1 is_stmt 0 view .LVU110
 612 0000 00B5     		push	{lr}
 613              	.LCFI29:
 614              		.cfi_def_cfa_offset 4
 615              		.cfi_offset 14, -4
 616 0002 83B0     		sub	sp, sp, #12
 617              	.LCFI30:
 618              		.cfi_def_cfa_offset 16
 280:Drivers/BSP/mpu6050/mpu6050.c ****     return MPU6050_WriteBits(dev, CONFIG, CFG_DLPF_CFG_BIT, CFG_DLPF_CFG_LENGTH, mode);
 619              		.loc 1 280 5 is_stmt 1 view .LVU111
 620              		.loc 1 280 12 is_stmt 0 view .LVU112
 621 0004 0091     		str	r1, [sp]
 622 0006 0323     		movs	r3, #3
 623 0008 0222     		movs	r2, #2
 624 000a 1A21     		movs	r1, #26
 625              	.LVL34:
 626              		.loc 1 280 12 view .LVU113
 627 000c FFF7FEFF 		bl	MPU6050_WriteBits
 628              	.LVL35:
 281:Drivers/BSP/mpu6050/mpu6050.c **** }
 629              		.loc 1 281 1 view .LVU114
 630 0010 03B0     		add	sp, sp, #12
 631              	.LCFI31:
 632              		.cfi_def_cfa_offset 4
 633              		@ sp needed
 634 0012 5DF804FB 		ldr	pc, [sp], #4
 635              		.cfi_endproc
 636              	.LFE125:
 638              		.section	.text.MPU6050_GetDLPFMode,"ax",%progbits
 639              		.align	1
 640              		.global	MPU6050_GetDLPFMode
 641              		.syntax unified
 642              		.thumb
 643              		.thumb_func
 644              		.fpu softvfp
 646              	MPU6050_GetDLPFMode:
 647              	.LVL36:
 648              	.LFB126:
 282:Drivers/BSP/mpu6050/mpu6050.c **** 
 283:Drivers/BSP/mpu6050/mpu6050.c **** uint8_t MPU6050_GetDLPFMode(MPU6050_DEV dev)
 284:Drivers/BSP/mpu6050/mpu6050.c **** {
 649              		.loc 1 284 1 is_stmt 1 view -0
 650              		.cfi_startproc
 651              		@ args = 0, pretend = 0, frame = 8
 652              		@ frame_needed = 0, uses_anonymous_args = 0
 653              		.loc 1 284 1 is_stmt 0 view .LVU116
 654 0000 00B5     		push	{lr}
 655              	.LCFI32:
 656              		.cfi_def_cfa_offset 4
 657              		.cfi_offset 14, -4
ARM GAS  C:\Users\jsauerer\AppData\Local\Temp\ccDLNG3v.s 			page 17


 658 0002 85B0     		sub	sp, sp, #20
 659              	.LCFI33:
 660              		.cfi_def_cfa_offset 24
 285:Drivers/BSP/mpu6050/mpu6050.c ****     uint8_t data = 0;
 661              		.loc 1 285 5 is_stmt 1 view .LVU117
 662              		.loc 1 285 13 is_stmt 0 view .LVU118
 663 0004 0023     		movs	r3, #0
 664 0006 8DF80F30 		strb	r3, [sp, #15]
 286:Drivers/BSP/mpu6050/mpu6050.c ****     MPU6050_ReadBits(dev, CONFIG, &data, CFG_DLPF_CFG_BIT, CFG_DLPF_CFG_LENGTH);
 665              		.loc 1 286 5 is_stmt 1 view .LVU119
 666 000a 0323     		movs	r3, #3
 667 000c 0093     		str	r3, [sp]
 668 000e 0223     		movs	r3, #2
 669 0010 0DF10F02 		add	r2, sp, #15
 670 0014 1A21     		movs	r1, #26
 671 0016 FFF7FEFF 		bl	MPU6050_ReadBits
 672              	.LVL37:
 287:Drivers/BSP/mpu6050/mpu6050.c ****     return data;
 673              		.loc 1 287 5 view .LVU120
 288:Drivers/BSP/mpu6050/mpu6050.c **** }
 674              		.loc 1 288 1 is_stmt 0 view .LVU121
 675 001a 9DF80F00 		ldrb	r0, [sp, #15]	@ zero_extendqisi2
 676 001e 05B0     		add	sp, sp, #20
 677              	.LCFI34:
 678              		.cfi_def_cfa_offset 4
 679              		@ sp needed
 680 0020 5DF804FB 		ldr	pc, [sp], #4
 681              		.cfi_endproc
 682              	.LFE126:
 684              		.section	.text.MPU6050_SetMotionDetectionThreshold,"ax",%progbits
 685              		.align	1
 686              		.global	MPU6050_SetMotionDetectionThreshold
 687              		.syntax unified
 688              		.thumb
 689              		.thumb_func
 690              		.fpu softvfp
 692              	MPU6050_SetMotionDetectionThreshold:
 693              	.LVL38:
 694              	.LFB127:
 289:Drivers/BSP/mpu6050/mpu6050.c **** 
 290:Drivers/BSP/mpu6050/mpu6050.c **** uint8_t MPU6050_SetMotionDetectionThreshold(MPU6050_DEV dev, uint8_t threshold)
 291:Drivers/BSP/mpu6050/mpu6050.c **** {
 695              		.loc 1 291 1 is_stmt 1 view -0
 696              		.cfi_startproc
 697              		@ args = 0, pretend = 0, frame = 0
 698              		@ frame_needed = 0, uses_anonymous_args = 0
 699              		.loc 1 291 1 is_stmt 0 view .LVU123
 700 0000 08B5     		push	{r3, lr}
 701              	.LCFI35:
 702              		.cfi_def_cfa_offset 8
 703              		.cfi_offset 3, -8
 704              		.cfi_offset 14, -4
 705 0002 0A46     		mov	r2, r1
 292:Drivers/BSP/mpu6050/mpu6050.c ****     return MPU6050_WriteByte(dev, MOT_THR, threshold);
 706              		.loc 1 292 5 is_stmt 1 view .LVU124
 707              		.loc 1 292 12 is_stmt 0 view .LVU125
 708 0004 1F21     		movs	r1, #31
ARM GAS  C:\Users\jsauerer\AppData\Local\Temp\ccDLNG3v.s 			page 18


 709              	.LVL39:
 710              		.loc 1 292 12 view .LVU126
 711 0006 FFF7FEFF 		bl	MPU6050_WriteByte
 712              	.LVL40:
 293:Drivers/BSP/mpu6050/mpu6050.c **** }
 713              		.loc 1 293 1 view .LVU127
 714 000a C0B2     		uxtb	r0, r0
 715 000c 08BD     		pop	{r3, pc}
 716              		.cfi_endproc
 717              	.LFE127:
 719              		.section	.text.MPU6050_GetMotionDetectionThreshold,"ax",%progbits
 720              		.align	1
 721              		.global	MPU6050_GetMotionDetectionThreshold
 722              		.syntax unified
 723              		.thumb
 724              		.thumb_func
 725              		.fpu softvfp
 727              	MPU6050_GetMotionDetectionThreshold:
 728              	.LVL41:
 729              	.LFB128:
 294:Drivers/BSP/mpu6050/mpu6050.c **** uint8_t MPU6050_GetMotionDetectionThreshold(MPU6050_DEV dev)
 295:Drivers/BSP/mpu6050/mpu6050.c **** {
 730              		.loc 1 295 1 is_stmt 1 view -0
 731              		.cfi_startproc
 732              		@ args = 0, pretend = 0, frame = 8
 733              		@ frame_needed = 0, uses_anonymous_args = 0
 734              		.loc 1 295 1 is_stmt 0 view .LVU129
 735 0000 00B5     		push	{lr}
 736              	.LCFI36:
 737              		.cfi_def_cfa_offset 4
 738              		.cfi_offset 14, -4
 739 0002 83B0     		sub	sp, sp, #12
 740              	.LCFI37:
 741              		.cfi_def_cfa_offset 16
 296:Drivers/BSP/mpu6050/mpu6050.c ****     uint8_t data = 0;
 742              		.loc 1 296 5 is_stmt 1 view .LVU130
 743              		.loc 1 296 13 is_stmt 0 view .LVU131
 744 0004 0023     		movs	r3, #0
 745 0006 8DF80730 		strb	r3, [sp, #7]
 297:Drivers/BSP/mpu6050/mpu6050.c ****     MPU6050_ReadByte(dev, MOT_THR, &data);
 746              		.loc 1 297 5 is_stmt 1 view .LVU132
 747 000a 0DF10702 		add	r2, sp, #7
 748 000e 1F21     		movs	r1, #31
 749 0010 FFF7FEFF 		bl	MPU6050_ReadByte
 750              	.LVL42:
 298:Drivers/BSP/mpu6050/mpu6050.c ****     return data;
 751              		.loc 1 298 5 view .LVU133
 299:Drivers/BSP/mpu6050/mpu6050.c **** }
 752              		.loc 1 299 1 is_stmt 0 view .LVU134
 753 0014 9DF80700 		ldrb	r0, [sp, #7]	@ zero_extendqisi2
 754 0018 03B0     		add	sp, sp, #12
 755              	.LCFI38:
 756              		.cfi_def_cfa_offset 4
 757              		@ sp needed
 758 001a 5DF804FB 		ldr	pc, [sp], #4
 759              		.cfi_endproc
 760              	.LFE128:
ARM GAS  C:\Users\jsauerer\AppData\Local\Temp\ccDLNG3v.s 			page 19


 762              		.section	.text.MPU6050_SetMotionDetectionDuration,"ax",%progbits
 763              		.align	1
 764              		.global	MPU6050_SetMotionDetectionDuration
 765              		.syntax unified
 766              		.thumb
 767              		.thumb_func
 768              		.fpu softvfp
 770              	MPU6050_SetMotionDetectionDuration:
 771              	.LVL43:
 772              	.LFB129:
 300:Drivers/BSP/mpu6050/mpu6050.c **** 
 301:Drivers/BSP/mpu6050/mpu6050.c **** MPU6050_Error MPU6050_SetMotionDetectionDuration(MPU6050_DEV dev, uint8_t duration)
 302:Drivers/BSP/mpu6050/mpu6050.c **** {
 773              		.loc 1 302 1 is_stmt 1 view -0
 774              		.cfi_startproc
 775              		@ args = 0, pretend = 0, frame = 0
 776              		@ frame_needed = 0, uses_anonymous_args = 0
 777              		.loc 1 302 1 is_stmt 0 view .LVU136
 778 0000 08B5     		push	{r3, lr}
 779              	.LCFI39:
 780              		.cfi_def_cfa_offset 8
 781              		.cfi_offset 3, -8
 782              		.cfi_offset 14, -4
 783 0002 0A46     		mov	r2, r1
 303:Drivers/BSP/mpu6050/mpu6050.c ****     return MPU6050_WriteByte(dev, MOT_DUR, duration);
 784              		.loc 1 303 5 is_stmt 1 view .LVU137
 785              		.loc 1 303 12 is_stmt 0 view .LVU138
 786 0004 2021     		movs	r1, #32
 787              	.LVL44:
 788              		.loc 1 303 12 view .LVU139
 789 0006 FFF7FEFF 		bl	MPU6050_WriteByte
 790              	.LVL45:
 304:Drivers/BSP/mpu6050/mpu6050.c **** }
 791              		.loc 1 304 1 view .LVU140
 792 000a 08BD     		pop	{r3, pc}
 793              		.cfi_endproc
 794              	.LFE129:
 796              		.section	.text.MPU6050_GetMotionDetectionDuration,"ax",%progbits
 797              		.align	1
 798              		.global	MPU6050_GetMotionDetectionDuration
 799              		.syntax unified
 800              		.thumb
 801              		.thumb_func
 802              		.fpu softvfp
 804              	MPU6050_GetMotionDetectionDuration:
 805              	.LVL46:
 806              	.LFB130:
 305:Drivers/BSP/mpu6050/mpu6050.c **** 
 306:Drivers/BSP/mpu6050/mpu6050.c **** uint8_t MPU6050_GetMotionDetectionDuration(MPU6050_DEV dev)
 307:Drivers/BSP/mpu6050/mpu6050.c **** {
 807              		.loc 1 307 1 is_stmt 1 view -0
 808              		.cfi_startproc
 809              		@ args = 0, pretend = 0, frame = 8
 810              		@ frame_needed = 0, uses_anonymous_args = 0
 811              		.loc 1 307 1 is_stmt 0 view .LVU142
 812 0000 00B5     		push	{lr}
 813              	.LCFI40:
ARM GAS  C:\Users\jsauerer\AppData\Local\Temp\ccDLNG3v.s 			page 20


 814              		.cfi_def_cfa_offset 4
 815              		.cfi_offset 14, -4
 816 0002 83B0     		sub	sp, sp, #12
 817              	.LCFI41:
 818              		.cfi_def_cfa_offset 16
 308:Drivers/BSP/mpu6050/mpu6050.c ****     uint8_t data = 0;
 819              		.loc 1 308 5 is_stmt 1 view .LVU143
 820              		.loc 1 308 13 is_stmt 0 view .LVU144
 821 0004 0023     		movs	r3, #0
 822 0006 8DF80730 		strb	r3, [sp, #7]
 309:Drivers/BSP/mpu6050/mpu6050.c ****     MPU6050_ReadByte(dev, MOT_DUR, &data);
 823              		.loc 1 309 5 is_stmt 1 view .LVU145
 824 000a 0DF10702 		add	r2, sp, #7
 825 000e 2021     		movs	r1, #32
 826 0010 FFF7FEFF 		bl	MPU6050_ReadByte
 827              	.LVL47:
 310:Drivers/BSP/mpu6050/mpu6050.c ****     return data;
 828              		.loc 1 310 5 view .LVU146
 311:Drivers/BSP/mpu6050/mpu6050.c **** }
 829              		.loc 1 311 1 is_stmt 0 view .LVU147
 830 0014 9DF80700 		ldrb	r0, [sp, #7]	@ zero_extendqisi2
 831 0018 03B0     		add	sp, sp, #12
 832              	.LCFI42:
 833              		.cfi_def_cfa_offset 4
 834              		@ sp needed
 835 001a 5DF804FB 		ldr	pc, [sp], #4
 836              		.cfi_endproc
 837              	.LFE130:
 839              		.section	.text.MPU6050_SetInterruptMode,"ax",%progbits
 840              		.align	1
 841              		.global	MPU6050_SetInterruptMode
 842              		.syntax unified
 843              		.thumb
 844              		.thumb_func
 845              		.fpu softvfp
 847              	MPU6050_SetInterruptMode:
 848              	.LVL48:
 849              	.LFB131:
 312:Drivers/BSP/mpu6050/mpu6050.c **** 
 313:Drivers/BSP/mpu6050/mpu6050.c **** MPU6050_Error MPU6050_SetInterruptMode(MPU6050_DEV dev, bool mode)
 314:Drivers/BSP/mpu6050/mpu6050.c **** {
 850              		.loc 1 314 1 is_stmt 1 view -0
 851              		.cfi_startproc
 852              		@ args = 0, pretend = 0, frame = 0
 853              		@ frame_needed = 0, uses_anonymous_args = 0
 854              		.loc 1 314 1 is_stmt 0 view .LVU149
 855 0000 08B5     		push	{r3, lr}
 856              	.LCFI43:
 857              		.cfi_def_cfa_offset 8
 858              		.cfi_offset 3, -8
 859              		.cfi_offset 14, -4
 860 0002 0B46     		mov	r3, r1
 315:Drivers/BSP/mpu6050/mpu6050.c ****     return MPU6050_WriteBit(dev, INT_PIN_CFG, INTCFG_INT_LEVEL_BIT, mode);
 861              		.loc 1 315 5 is_stmt 1 view .LVU150
 862              		.loc 1 315 12 is_stmt 0 view .LVU151
 863 0004 0722     		movs	r2, #7
 864 0006 3721     		movs	r1, #55
ARM GAS  C:\Users\jsauerer\AppData\Local\Temp\ccDLNG3v.s 			page 21


 865              	.LVL49:
 866              		.loc 1 315 12 view .LVU152
 867 0008 FFF7FEFF 		bl	MPU6050_WriteBit
 868              	.LVL50:
 316:Drivers/BSP/mpu6050/mpu6050.c **** }
 869              		.loc 1 316 1 view .LVU153
 870 000c 08BD     		pop	{r3, pc}
 871              		.cfi_endproc
 872              	.LFE131:
 874              		.section	.text.MPU6050_SetInterruptDrive,"ax",%progbits
 875              		.align	1
 876              		.global	MPU6050_SetInterruptDrive
 877              		.syntax unified
 878              		.thumb
 879              		.thumb_func
 880              		.fpu softvfp
 882              	MPU6050_SetInterruptDrive:
 883              	.LVL51:
 884              	.LFB132:
 317:Drivers/BSP/mpu6050/mpu6050.c **** 
 318:Drivers/BSP/mpu6050/mpu6050.c **** MPU6050_Error MPU6050_SetInterruptDrive(MPU6050_DEV dev, bool drive)
 319:Drivers/BSP/mpu6050/mpu6050.c **** {
 885              		.loc 1 319 1 is_stmt 1 view -0
 886              		.cfi_startproc
 887              		@ args = 0, pretend = 0, frame = 0
 888              		@ frame_needed = 0, uses_anonymous_args = 0
 889              		.loc 1 319 1 is_stmt 0 view .LVU155
 890 0000 08B5     		push	{r3, lr}
 891              	.LCFI44:
 892              		.cfi_def_cfa_offset 8
 893              		.cfi_offset 3, -8
 894              		.cfi_offset 14, -4
 895 0002 0B46     		mov	r3, r1
 320:Drivers/BSP/mpu6050/mpu6050.c ****     return MPU6050_WriteBit(dev, INT_PIN_CFG, INTCFG_INT_OPEN_BIT, drive);
 896              		.loc 1 320 5 is_stmt 1 view .LVU156
 897              		.loc 1 320 12 is_stmt 0 view .LVU157
 898 0004 0622     		movs	r2, #6
 899 0006 3721     		movs	r1, #55
 900              	.LVL52:
 901              		.loc 1 320 12 view .LVU158
 902 0008 FFF7FEFF 		bl	MPU6050_WriteBit
 903              	.LVL53:
 321:Drivers/BSP/mpu6050/mpu6050.c **** }
 904              		.loc 1 321 1 view .LVU159
 905 000c 08BD     		pop	{r3, pc}
 906              		.cfi_endproc
 907              	.LFE132:
 909              		.section	.text.MPU6050_SetInterruptLatch,"ax",%progbits
 910              		.align	1
 911              		.global	MPU6050_SetInterruptLatch
 912              		.syntax unified
 913              		.thumb
 914              		.thumb_func
 915              		.fpu softvfp
 917              	MPU6050_SetInterruptLatch:
 918              	.LVL54:
 919              	.LFB133:
ARM GAS  C:\Users\jsauerer\AppData\Local\Temp\ccDLNG3v.s 			page 22


 322:Drivers/BSP/mpu6050/mpu6050.c **** 
 323:Drivers/BSP/mpu6050/mpu6050.c **** MPU6050_Error MPU6050_SetInterruptLatch(MPU6050_DEV dev, bool latch)
 324:Drivers/BSP/mpu6050/mpu6050.c **** {
 920              		.loc 1 324 1 is_stmt 1 view -0
 921              		.cfi_startproc
 922              		@ args = 0, pretend = 0, frame = 0
 923              		@ frame_needed = 0, uses_anonymous_args = 0
 924              		.loc 1 324 1 is_stmt 0 view .LVU161
 925 0000 08B5     		push	{r3, lr}
 926              	.LCFI45:
 927              		.cfi_def_cfa_offset 8
 928              		.cfi_offset 3, -8
 929              		.cfi_offset 14, -4
 930 0002 0B46     		mov	r3, r1
 325:Drivers/BSP/mpu6050/mpu6050.c ****     return MPU6050_WriteBit(dev, INT_PIN_CFG, INTCFG_LATCH_INT_EN_BIT, latch);
 931              		.loc 1 325 5 is_stmt 1 view .LVU162
 932              		.loc 1 325 12 is_stmt 0 view .LVU163
 933 0004 0522     		movs	r2, #5
 934 0006 3721     		movs	r1, #55
 935              	.LVL55:
 936              		.loc 1 325 12 view .LVU164
 937 0008 FFF7FEFF 		bl	MPU6050_WriteBit
 938              	.LVL56:
 326:Drivers/BSP/mpu6050/mpu6050.c **** }
 939              		.loc 1 326 1 view .LVU165
 940 000c 08BD     		pop	{r3, pc}
 941              		.cfi_endproc
 942              	.LFE133:
 944              		.section	.text.MPU6050_SetInterruptLatchClear,"ax",%progbits
 945              		.align	1
 946              		.global	MPU6050_SetInterruptLatchClear
 947              		.syntax unified
 948              		.thumb
 949              		.thumb_func
 950              		.fpu softvfp
 952              	MPU6050_SetInterruptLatchClear:
 953              	.LVL57:
 954              	.LFB134:
 327:Drivers/BSP/mpu6050/mpu6050.c **** 
 328:Drivers/BSP/mpu6050/mpu6050.c **** MPU6050_Error MPU6050_SetInterruptLatchClear(MPU6050_DEV dev, bool clear)
 329:Drivers/BSP/mpu6050/mpu6050.c **** {
 955              		.loc 1 329 1 is_stmt 1 view -0
 956              		.cfi_startproc
 957              		@ args = 0, pretend = 0, frame = 0
 958              		@ frame_needed = 0, uses_anonymous_args = 0
 959              		.loc 1 329 1 is_stmt 0 view .LVU167
 960 0000 08B5     		push	{r3, lr}
 961              	.LCFI46:
 962              		.cfi_def_cfa_offset 8
 963              		.cfi_offset 3, -8
 964              		.cfi_offset 14, -4
 965 0002 0B46     		mov	r3, r1
 330:Drivers/BSP/mpu6050/mpu6050.c ****     return MPU6050_WriteBit(dev, INT_PIN_CFG, INTCFG_INT_RD_CLEAR_BIT, clear);
 966              		.loc 1 330 5 is_stmt 1 view .LVU168
 967              		.loc 1 330 12 is_stmt 0 view .LVU169
 968 0004 0422     		movs	r2, #4
 969 0006 3721     		movs	r1, #55
ARM GAS  C:\Users\jsauerer\AppData\Local\Temp\ccDLNG3v.s 			page 23


 970              	.LVL58:
 971              		.loc 1 330 12 view .LVU170
 972 0008 FFF7FEFF 		bl	MPU6050_WriteBit
 973              	.LVL59:
 331:Drivers/BSP/mpu6050/mpu6050.c **** }
 974              		.loc 1 331 1 view .LVU171
 975 000c 08BD     		pop	{r3, pc}
 976              		.cfi_endproc
 977              	.LFE134:
 979              		.section	.text.MPU6050_SetRate,"ax",%progbits
 980              		.align	1
 981              		.global	MPU6050_SetRate
 982              		.syntax unified
 983              		.thumb
 984              		.thumb_func
 985              		.fpu softvfp
 987              	MPU6050_SetRate:
 988              	.LVL60:
 989              	.LFB135:
 332:Drivers/BSP/mpu6050/mpu6050.c **** 
 333:Drivers/BSP/mpu6050/mpu6050.c **** MPU6050_Error MPU6050_SetRate(MPU6050_DEV dev, uint8_t rate)
 334:Drivers/BSP/mpu6050/mpu6050.c **** {
 990              		.loc 1 334 1 is_stmt 1 view -0
 991              		.cfi_startproc
 992              		@ args = 0, pretend = 0, frame = 0
 993              		@ frame_needed = 0, uses_anonymous_args = 0
 994              		.loc 1 334 1 is_stmt 0 view .LVU173
 995 0000 08B5     		push	{r3, lr}
 996              	.LCFI47:
 997              		.cfi_def_cfa_offset 8
 998              		.cfi_offset 3, -8
 999              		.cfi_offset 14, -4
 1000 0002 0A46     		mov	r2, r1
 335:Drivers/BSP/mpu6050/mpu6050.c ****     return MPU6050_WriteByte(dev, SMPLRT_DIV, rate);
 1001              		.loc 1 335 5 is_stmt 1 view .LVU174
 1002              		.loc 1 335 12 is_stmt 0 view .LVU175
 1003 0004 1921     		movs	r1, #25
 1004              	.LVL61:
 1005              		.loc 1 335 12 view .LVU176
 1006 0006 FFF7FEFF 		bl	MPU6050_WriteByte
 1007              	.LVL62:
 336:Drivers/BSP/mpu6050/mpu6050.c **** }
 1008              		.loc 1 336 1 view .LVU177
 1009 000a 08BD     		pop	{r3, pc}
 1010              		.cfi_endproc
 1011              	.LFE135:
 1013              		.section	.text.MPU6050_SetWakeFrequency,"ax",%progbits
 1014              		.align	1
 1015              		.global	MPU6050_SetWakeFrequency
 1016              		.syntax unified
 1017              		.thumb
 1018              		.thumb_func
 1019              		.fpu softvfp
 1021              	MPU6050_SetWakeFrequency:
 1022              	.LVL63:
 1023              	.LFB136:
 337:Drivers/BSP/mpu6050/mpu6050.c **** 
ARM GAS  C:\Users\jsauerer\AppData\Local\Temp\ccDLNG3v.s 			page 24


 338:Drivers/BSP/mpu6050/mpu6050.c **** MPU6050_Error MPU6050_SetWakeFrequency(MPU6050_DEV dev, uint8_t frequency)
 339:Drivers/BSP/mpu6050/mpu6050.c **** {
 1024              		.loc 1 339 1 is_stmt 1 view -0
 1025              		.cfi_startproc
 1026              		@ args = 0, pretend = 0, frame = 0
 1027              		@ frame_needed = 0, uses_anonymous_args = 0
 1028              		.loc 1 339 1 is_stmt 0 view .LVU179
 1029 0000 00B5     		push	{lr}
 1030              	.LCFI48:
 1031              		.cfi_def_cfa_offset 4
 1032              		.cfi_offset 14, -4
 1033 0002 83B0     		sub	sp, sp, #12
 1034              	.LCFI49:
 1035              		.cfi_def_cfa_offset 16
 340:Drivers/BSP/mpu6050/mpu6050.c ****     return MPU6050_WriteBits(dev, PWR_MGMT_2, PWR2_LP_WAKE_CTRL_BIT, PWR2_LP_WAKE_CTRL_LENGTH, freq
 1036              		.loc 1 340 5 is_stmt 1 view .LVU180
 1037              		.loc 1 340 12 is_stmt 0 view .LVU181
 1038 0004 0091     		str	r1, [sp]
 1039 0006 0223     		movs	r3, #2
 1040 0008 0722     		movs	r2, #7
 1041 000a 6C21     		movs	r1, #108
 1042              	.LVL64:
 1043              		.loc 1 340 12 view .LVU182
 1044 000c FFF7FEFF 		bl	MPU6050_WriteBits
 1045              	.LVL65:
 341:Drivers/BSP/mpu6050/mpu6050.c **** }
 1046              		.loc 1 341 1 view .LVU183
 1047 0010 03B0     		add	sp, sp, #12
 1048              	.LCFI50:
 1049              		.cfi_def_cfa_offset 4
 1050              		@ sp needed
 1051 0012 5DF804FB 		ldr	pc, [sp], #4
 1052              		.cfi_endproc
 1053              	.LFE136:
 1055              		.section	.text.MPU6050_SetWakeCycleEnabled,"ax",%progbits
 1056              		.align	1
 1057              		.global	MPU6050_SetWakeCycleEnabled
 1058              		.syntax unified
 1059              		.thumb
 1060              		.thumb_func
 1061              		.fpu softvfp
 1063              	MPU6050_SetWakeCycleEnabled:
 1064              	.LVL66:
 1065              	.LFB137:
 342:Drivers/BSP/mpu6050/mpu6050.c **** 
 343:Drivers/BSP/mpu6050/mpu6050.c **** MPU6050_Error MPU6050_SetWakeCycleEnabled(MPU6050_DEV dev, bool enabled)
 344:Drivers/BSP/mpu6050/mpu6050.c **** {
 1066              		.loc 1 344 1 is_stmt 1 view -0
 1067              		.cfi_startproc
 1068              		@ args = 0, pretend = 0, frame = 0
 1069              		@ frame_needed = 0, uses_anonymous_args = 0
 1070              		.loc 1 344 1 is_stmt 0 view .LVU185
 1071 0000 08B5     		push	{r3, lr}
 1072              	.LCFI51:
 1073              		.cfi_def_cfa_offset 8
 1074              		.cfi_offset 3, -8
 1075              		.cfi_offset 14, -4
ARM GAS  C:\Users\jsauerer\AppData\Local\Temp\ccDLNG3v.s 			page 25


 1076 0002 0B46     		mov	r3, r1
 345:Drivers/BSP/mpu6050/mpu6050.c ****     return MPU6050_WriteBit(dev, PWR_MGMT_1, PWR1_CYCLE_BIT, enabled);
 1077              		.loc 1 345 5 is_stmt 1 view .LVU186
 1078              		.loc 1 345 12 is_stmt 0 view .LVU187
 1079 0004 0522     		movs	r2, #5
 1080 0006 6B21     		movs	r1, #107
 1081              	.LVL67:
 1082              		.loc 1 345 12 view .LVU188
 1083 0008 FFF7FEFF 		bl	MPU6050_WriteBit
 1084              	.LVL68:
 346:Drivers/BSP/mpu6050/mpu6050.c **** }
 1085              		.loc 1 346 1 view .LVU189
 1086 000c 08BD     		pop	{r3, pc}
 1087              		.cfi_endproc
 1088              	.LFE137:
 1090              		.section	.text.MPU6050_SetTempSensorEnabled,"ax",%progbits
 1091              		.align	1
 1092              		.global	MPU6050_SetTempSensorEnabled
 1093              		.syntax unified
 1094              		.thumb
 1095              		.thumb_func
 1096              		.fpu softvfp
 1098              	MPU6050_SetTempSensorEnabled:
 1099              	.LVL69:
 1100              	.LFB138:
 347:Drivers/BSP/mpu6050/mpu6050.c **** 
 348:Drivers/BSP/mpu6050/mpu6050.c **** MPU6050_Error MPU6050_SetTempSensorEnabled(MPU6050_DEV dev, bool enable)
 349:Drivers/BSP/mpu6050/mpu6050.c **** {
 1101              		.loc 1 349 1 is_stmt 1 view -0
 1102              		.cfi_startproc
 1103              		@ args = 0, pretend = 0, frame = 0
 1104              		@ frame_needed = 0, uses_anonymous_args = 0
 1105              		.loc 1 349 1 is_stmt 0 view .LVU191
 1106 0000 08B5     		push	{r3, lr}
 1107              	.LCFI52:
 1108              		.cfi_def_cfa_offset 8
 1109              		.cfi_offset 3, -8
 1110              		.cfi_offset 14, -4
 350:Drivers/BSP/mpu6050/mpu6050.c ****     return MPU6050_WriteBit(dev, PWR_MGMT_1, PWR1_TEMP_DIS_BIT, !enable);
 1111              		.loc 1 350 5 is_stmt 1 view .LVU192
 1112              		.loc 1 350 12 is_stmt 0 view .LVU193
 1113 0002 81F00103 		eor	r3, r1, #1
 1114 0006 0322     		movs	r2, #3
 1115 0008 6B21     		movs	r1, #107
 1116              	.LVL70:
 1117              		.loc 1 350 12 view .LVU194
 1118 000a FFF7FEFF 		bl	MPU6050_WriteBit
 1119              	.LVL71:
 351:Drivers/BSP/mpu6050/mpu6050.c **** }
 1120              		.loc 1 351 1 view .LVU195
 1121 000e 08BD     		pop	{r3, pc}
 1122              		.cfi_endproc
 1123              	.LFE138:
 1125              		.section	.text.MPU6050_SetStandbyXGyroEnabled,"ax",%progbits
 1126              		.align	1
 1127              		.global	MPU6050_SetStandbyXGyroEnabled
 1128              		.syntax unified
ARM GAS  C:\Users\jsauerer\AppData\Local\Temp\ccDLNG3v.s 			page 26


 1129              		.thumb
 1130              		.thumb_func
 1131              		.fpu softvfp
 1133              	MPU6050_SetStandbyXGyroEnabled:
 1134              	.LVL72:
 1135              	.LFB139:
 352:Drivers/BSP/mpu6050/mpu6050.c **** 
 353:Drivers/BSP/mpu6050/mpu6050.c **** MPU6050_Error MPU6050_SetStandbyXGyroEnabled(MPU6050_DEV dev, bool enable)
 354:Drivers/BSP/mpu6050/mpu6050.c **** {
 1136              		.loc 1 354 1 is_stmt 1 view -0
 1137              		.cfi_startproc
 1138              		@ args = 0, pretend = 0, frame = 0
 1139              		@ frame_needed = 0, uses_anonymous_args = 0
 1140              		.loc 1 354 1 is_stmt 0 view .LVU197
 1141 0000 08B5     		push	{r3, lr}
 1142              	.LCFI53:
 1143              		.cfi_def_cfa_offset 8
 1144              		.cfi_offset 3, -8
 1145              		.cfi_offset 14, -4
 1146 0002 0B46     		mov	r3, r1
 355:Drivers/BSP/mpu6050/mpu6050.c ****     return MPU6050_WriteBit(dev, PWR_MGMT_2, PWR2_STBY_XG_BIT, enable);
 1147              		.loc 1 355 5 is_stmt 1 view .LVU198
 1148              		.loc 1 355 12 is_stmt 0 view .LVU199
 1149 0004 0222     		movs	r2, #2
 1150 0006 6C21     		movs	r1, #108
 1151              	.LVL73:
 1152              		.loc 1 355 12 view .LVU200
 1153 0008 FFF7FEFF 		bl	MPU6050_WriteBit
 1154              	.LVL74:
 356:Drivers/BSP/mpu6050/mpu6050.c **** }
 1155              		.loc 1 356 1 view .LVU201
 1156 000c 08BD     		pop	{r3, pc}
 1157              		.cfi_endproc
 1158              	.LFE139:
 1160              		.section	.text.MPU6050_SetStandbyYGyroEnabled,"ax",%progbits
 1161              		.align	1
 1162              		.global	MPU6050_SetStandbyYGyroEnabled
 1163              		.syntax unified
 1164              		.thumb
 1165              		.thumb_func
 1166              		.fpu softvfp
 1168              	MPU6050_SetStandbyYGyroEnabled:
 1169              	.LVL75:
 1170              	.LFB140:
 357:Drivers/BSP/mpu6050/mpu6050.c **** 
 358:Drivers/BSP/mpu6050/mpu6050.c **** MPU6050_Error MPU6050_SetStandbyYGyroEnabled(MPU6050_DEV dev, bool enable)
 359:Drivers/BSP/mpu6050/mpu6050.c **** {
 1171              		.loc 1 359 1 is_stmt 1 view -0
 1172              		.cfi_startproc
 1173              		@ args = 0, pretend = 0, frame = 0
 1174              		@ frame_needed = 0, uses_anonymous_args = 0
 1175              		.loc 1 359 1 is_stmt 0 view .LVU203
 1176 0000 08B5     		push	{r3, lr}
 1177              	.LCFI54:
 1178              		.cfi_def_cfa_offset 8
 1179              		.cfi_offset 3, -8
 1180              		.cfi_offset 14, -4
ARM GAS  C:\Users\jsauerer\AppData\Local\Temp\ccDLNG3v.s 			page 27


 1181 0002 0B46     		mov	r3, r1
 360:Drivers/BSP/mpu6050/mpu6050.c ****     return MPU6050_WriteBit(dev, PWR_MGMT_2, PWR2_STBY_YG_BIT, enable);
 1182              		.loc 1 360 5 is_stmt 1 view .LVU204
 1183              		.loc 1 360 12 is_stmt 0 view .LVU205
 1184 0004 0122     		movs	r2, #1
 1185 0006 6C21     		movs	r1, #108
 1186              	.LVL76:
 1187              		.loc 1 360 12 view .LVU206
 1188 0008 FFF7FEFF 		bl	MPU6050_WriteBit
 1189              	.LVL77:
 361:Drivers/BSP/mpu6050/mpu6050.c **** }
 1190              		.loc 1 361 1 view .LVU207
 1191 000c 08BD     		pop	{r3, pc}
 1192              		.cfi_endproc
 1193              	.LFE140:
 1195              		.section	.text.MPU6050_SetStandbyZGyroEnabled,"ax",%progbits
 1196              		.align	1
 1197              		.global	MPU6050_SetStandbyZGyroEnabled
 1198              		.syntax unified
 1199              		.thumb
 1200              		.thumb_func
 1201              		.fpu softvfp
 1203              	MPU6050_SetStandbyZGyroEnabled:
 1204              	.LVL78:
 1205              	.LFB141:
 362:Drivers/BSP/mpu6050/mpu6050.c **** 
 363:Drivers/BSP/mpu6050/mpu6050.c **** MPU6050_Error MPU6050_SetStandbyZGyroEnabled(MPU6050_DEV dev, bool enable)
 364:Drivers/BSP/mpu6050/mpu6050.c **** {
 1206              		.loc 1 364 1 is_stmt 1 view -0
 1207              		.cfi_startproc
 1208              		@ args = 0, pretend = 0, frame = 0
 1209              		@ frame_needed = 0, uses_anonymous_args = 0
 1210              		.loc 1 364 1 is_stmt 0 view .LVU209
 1211 0000 08B5     		push	{r3, lr}
 1212              	.LCFI55:
 1213              		.cfi_def_cfa_offset 8
 1214              		.cfi_offset 3, -8
 1215              		.cfi_offset 14, -4
 1216 0002 0B46     		mov	r3, r1
 365:Drivers/BSP/mpu6050/mpu6050.c ****     return MPU6050_WriteBit(dev, PWR_MGMT_2, PWR2_STBY_ZG_BIT, enable);
 1217              		.loc 1 365 5 is_stmt 1 view .LVU210
 1218              		.loc 1 365 12 is_stmt 0 view .LVU211
 1219 0004 0022     		movs	r2, #0
 1220 0006 6C21     		movs	r1, #108
 1221              	.LVL79:
 1222              		.loc 1 365 12 view .LVU212
 1223 0008 FFF7FEFF 		bl	MPU6050_WriteBit
 1224              	.LVL80:
 366:Drivers/BSP/mpu6050/mpu6050.c **** }...
 1225              		.loc 1 366 1 view .LVU213
 1226 000c 08BD     		pop	{r3, pc}
 1227              		.cfi_endproc
 1228              	.LFE141:
 1230              		.section	.text.MPU6050_LPMotionInit,"ax",%progbits
 1231              		.align	1
 1232              		.global	MPU6050_LPMotionInit
 1233              		.syntax unified
ARM GAS  C:\Users\jsauerer\AppData\Local\Temp\ccDLNG3v.s 			page 28


 1234              		.thumb
 1235              		.thumb_func
 1236              		.fpu softvfp
 1238              	MPU6050_LPMotionInit:
 1239              	.LVL81:
 1240              	.LFB111:
   4:Drivers/BSP/mpu6050/mpu6050.c **** {
 1241              		.loc 1 4 1 is_stmt 1 view -0
 1242              		.cfi_startproc
 1243              		@ args = 0, pretend = 0, frame = 8
 1244              		@ frame_needed = 0, uses_anonymous_args = 0
   4:Drivers/BSP/mpu6050/mpu6050.c **** {
 1245              		.loc 1 4 1 is_stmt 0 view .LVU215
 1246 0000 10B5     		push	{r4, lr}
 1247              	.LCFI56:
 1248              		.cfi_def_cfa_offset 8
 1249              		.cfi_offset 4, -8
 1250              		.cfi_offset 14, -4
 1251 0002 82B0     		sub	sp, sp, #8
 1252              	.LCFI57:
 1253              		.cfi_def_cfa_offset 16
 1254 0004 0446     		mov	r4, r0
  11:Drivers/BSP/mpu6050/mpu6050.c ****     uint8_t c;
 1255              		.loc 1 11 5 is_stmt 1 view .LVU216
  13:Drivers/BSP/mpu6050/mpu6050.c ****     MPU6050_WriteByte(dev, PWR_MGMT_1, 0x00); // Clear sleep mode bit (6), enable all sensors
 1256              		.loc 1 13 5 view .LVU217
 1257 0006 0022     		movs	r2, #0
 1258 0008 6B21     		movs	r1, #107
 1259 000a FFF7FEFF 		bl	MPU6050_WriteByte
 1260              	.LVL82:
  15:Drivers/BSP/mpu6050/mpu6050.c ****     MPU6050_Delay(100);
 1261              		.loc 1 15 5 view .LVU218
 1262 000e 6420     		movs	r0, #100
 1263 0010 FFF7FEFF 		bl	MPU6050_Delay
 1264              	.LVL83:
  17:Drivers/BSP/mpu6050/mpu6050.c ****     MPU6050_Error status = MPU6050_WriteByte(dev, PWR_MGMT_1, 0x01); // Set clock source to be PLL 
 1265              		.loc 1 17 5 view .LVU219
  17:Drivers/BSP/mpu6050/mpu6050.c ****     MPU6050_Error status = MPU6050_WriteByte(dev, PWR_MGMT_1, 0x01); // Set clock source to be PLL 
 1266              		.loc 1 17 28 is_stmt 0 view .LVU220
 1267 0014 0122     		movs	r2, #1
 1268 0016 6B21     		movs	r1, #107
 1269 0018 2046     		mov	r0, r4
 1270 001a FFF7FEFF 		bl	MPU6050_WriteByte
 1271              	.LVL84:
  18:Drivers/BSP/mpu6050/mpu6050.c ****     if (status != MPU6050_ERROR_NONE)
 1272              		.loc 1 18 5 is_stmt 1 view .LVU221
  18:Drivers/BSP/mpu6050/mpu6050.c ****     if (status != MPU6050_ERROR_NONE)
 1273              		.loc 1 18 8 is_stmt 0 view .LVU222
 1274 001e 08B1     		cbz	r0, .L65
 1275              	.L63:
 190:Drivers/BSP/mpu6050/mpu6050.c **** }
 1276              		.loc 1 190 1 view .LVU223
 1277 0020 02B0     		add	sp, sp, #8
 1278              	.LCFI58:
 1279              		.cfi_remember_state
 1280              		.cfi_def_cfa_offset 8
 1281              		@ sp needed
ARM GAS  C:\Users\jsauerer\AppData\Local\Temp\ccDLNG3v.s 			page 29


 1282 0022 10BD     		pop	{r4, pc}
 1283              	.LVL85:
 1284              	.L65:
 1285              	.LCFI59:
 1286              		.cfi_restore_state
  26:Drivers/BSP/mpu6050/mpu6050.c ****     status = MPU6050_WriteByte(dev, CONFIG, 0x03);
 1287              		.loc 1 26 5 is_stmt 1 view .LVU224
  26:Drivers/BSP/mpu6050/mpu6050.c ****     status = MPU6050_WriteByte(dev, CONFIG, 0x03);
 1288              		.loc 1 26 14 is_stmt 0 view .LVU225
 1289 0024 0322     		movs	r2, #3
 1290 0026 1A21     		movs	r1, #26
 1291 0028 2046     		mov	r0, r4
 1292 002a FFF7FEFF 		bl	MPU6050_WriteByte
 1293              	.LVL86:
  28:Drivers/BSP/mpu6050/mpu6050.c ****     if (status != MPU6050_ERROR_NONE)
 1294              		.loc 1 28 5 is_stmt 1 view .LVU226
  28:Drivers/BSP/mpu6050/mpu6050.c ****     if (status != MPU6050_ERROR_NONE)
 1295              		.loc 1 28 8 is_stmt 0 view .LVU227
 1296 002e 0028     		cmp	r0, #0
 1297 0030 F6D1     		bne	.L63
  33:Drivers/BSP/mpu6050/mpu6050.c ****     status = MPU6050_WriteByte(dev, SMPLRT_DIV, 0x04); // Use a 200 Hz rate; the same rate set in C
 1298              		.loc 1 33 5 is_stmt 1 view .LVU228
  33:Drivers/BSP/mpu6050/mpu6050.c ****     status = MPU6050_WriteByte(dev, SMPLRT_DIV, 0x04); // Use a 200 Hz rate; the same rate set in C
 1299              		.loc 1 33 14 is_stmt 0 view .LVU229
 1300 0032 0422     		movs	r2, #4
 1301 0034 1921     		movs	r1, #25
 1302 0036 2046     		mov	r0, r4
 1303              	.LVL87:
  33:Drivers/BSP/mpu6050/mpu6050.c ****     status = MPU6050_WriteByte(dev, SMPLRT_DIV, 0x04); // Use a 200 Hz rate; the same rate set in C
 1304              		.loc 1 33 14 view .LVU230
 1305 0038 FFF7FEFF 		bl	MPU6050_WriteByte
 1306              	.LVL88:
  37:Drivers/BSP/mpu6050/mpu6050.c ****     status = MPU6050_ReadByte(dev, GYRO_CONFIG, &c);
 1307              		.loc 1 37 5 is_stmt 1 view .LVU231
  37:Drivers/BSP/mpu6050/mpu6050.c ****     status = MPU6050_ReadByte(dev, GYRO_CONFIG, &c);
 1308              		.loc 1 37 14 is_stmt 0 view .LVU232
 1309 003c 0DF10702 		add	r2, sp, #7
 1310 0040 1B21     		movs	r1, #27
 1311 0042 2046     		mov	r0, r4
 1312 0044 FFF7FEFF 		bl	MPU6050_ReadByte
 1313              	.LVL89:
  38:Drivers/BSP/mpu6050/mpu6050.c ****     if (status != MPU6050_ERROR_NONE)
 1314              		.loc 1 38 5 is_stmt 1 view .LVU233
  38:Drivers/BSP/mpu6050/mpu6050.c ****     if (status != MPU6050_ERROR_NONE)
 1315              		.loc 1 38 8 is_stmt 0 view .LVU234
 1316 0048 0028     		cmp	r0, #0
 1317 004a E9D1     		bne	.L63
  42:Drivers/BSP/mpu6050/mpu6050.c ****     status = MPU6050_WriteByte(dev, GYRO_CONFIG, c & ~0xE0); // Clear self-test bits [7:5]
 1318              		.loc 1 42 5 is_stmt 1 view .LVU235
  42:Drivers/BSP/mpu6050/mpu6050.c ****     status = MPU6050_WriteByte(dev, GYRO_CONFIG, c & ~0xE0); // Clear self-test bits [7:5]
 1319              		.loc 1 42 14 is_stmt 0 view .LVU236
 1320 004c 9DF80720 		ldrb	r2, [sp, #7]	@ zero_extendqisi2
 1321 0050 02F01F02 		and	r2, r2, #31
 1322 0054 1B21     		movs	r1, #27
 1323 0056 2046     		mov	r0, r4
 1324              	.LVL90:
  42:Drivers/BSP/mpu6050/mpu6050.c ****     status = MPU6050_WriteByte(dev, GYRO_CONFIG, c & ~0xE0); // Clear self-test bits [7:5]
ARM GAS  C:\Users\jsauerer\AppData\Local\Temp\ccDLNG3v.s 			page 30


 1325              		.loc 1 42 14 view .LVU237
 1326 0058 FFF7FEFF 		bl	MPU6050_WriteByte
 1327              	.LVL91:
  43:Drivers/BSP/mpu6050/mpu6050.c ****     if (status != MPU6050_ERROR_NONE)
 1328              		.loc 1 43 5 is_stmt 1 view .LVU238
  43:Drivers/BSP/mpu6050/mpu6050.c ****     if (status != MPU6050_ERROR_NONE)
 1329              		.loc 1 43 8 is_stmt 0 view .LVU239
 1330 005c 0028     		cmp	r0, #0
 1331 005e DFD1     		bne	.L63
  47:Drivers/BSP/mpu6050/mpu6050.c ****     status = MPU6050_WriteByte(dev, GYRO_CONFIG, c & ~0x18); // Clear AFS bits [4:3]
 1332              		.loc 1 47 5 is_stmt 1 view .LVU240
  47:Drivers/BSP/mpu6050/mpu6050.c ****     status = MPU6050_WriteByte(dev, GYRO_CONFIG, c & ~0x18); // Clear AFS bits [4:3]
 1333              		.loc 1 47 14 is_stmt 0 view .LVU241
 1334 0060 9DF80720 		ldrb	r2, [sp, #7]	@ zero_extendqisi2
 1335 0064 02F0E702 		and	r2, r2, #231
 1336 0068 1B21     		movs	r1, #27
 1337 006a 2046     		mov	r0, r4
 1338              	.LVL92:
  47:Drivers/BSP/mpu6050/mpu6050.c ****     status = MPU6050_WriteByte(dev, GYRO_CONFIG, c & ~0x18); // Clear AFS bits [4:3]
 1339              		.loc 1 47 14 view .LVU242
 1340 006c FFF7FEFF 		bl	MPU6050_WriteByte
 1341              	.LVL93:
  48:Drivers/BSP/mpu6050/mpu6050.c ****     if (status != MPU6050_ERROR_NONE)
 1342              		.loc 1 48 5 is_stmt 1 view .LVU243
  48:Drivers/BSP/mpu6050/mpu6050.c ****     if (status != MPU6050_ERROR_NONE)
 1343              		.loc 1 48 8 is_stmt 0 view .LVU244
 1344 0070 0028     		cmp	r0, #0
 1345 0072 D5D1     		bne	.L63
  52:Drivers/BSP/mpu6050/mpu6050.c ****     status = MPU6050_WriteByte(dev, GYRO_CONFIG, c | dev->Data.gscale << 3); // Set full scale rang
 1346              		.loc 1 52 5 is_stmt 1 view .LVU245
  52:Drivers/BSP/mpu6050/mpu6050.c ****     status = MPU6050_WriteByte(dev, GYRO_CONFIG, c | dev->Data.gscale << 3); // Set full scale rang
 1347              		.loc 1 52 63 is_stmt 0 view .LVU246
 1348 0074 6378     		ldrb	r3, [r4, #1]	@ zero_extendqisi2
  52:Drivers/BSP/mpu6050/mpu6050.c ****     status = MPU6050_WriteByte(dev, GYRO_CONFIG, c | dev->Data.gscale << 3); // Set full scale rang
 1349              		.loc 1 52 52 view .LVU247
 1350 0076 9DF80720 		ldrb	r2, [sp, #7]	@ zero_extendqisi2
 1351 007a 42EAC302 		orr	r2, r2, r3, lsl #3
  52:Drivers/BSP/mpu6050/mpu6050.c ****     status = MPU6050_WriteByte(dev, GYRO_CONFIG, c | dev->Data.gscale << 3); // Set full scale rang
 1352              		.loc 1 52 14 view .LVU248
 1353 007e D2B2     		uxtb	r2, r2
 1354 0080 1B21     		movs	r1, #27
 1355 0082 2046     		mov	r0, r4
 1356              	.LVL94:
  52:Drivers/BSP/mpu6050/mpu6050.c ****     status = MPU6050_WriteByte(dev, GYRO_CONFIG, c | dev->Data.gscale << 3); // Set full scale rang
 1357              		.loc 1 52 14 view .LVU249
 1358 0084 FFF7FEFF 		bl	MPU6050_WriteByte
 1359              	.LVL95:
  53:Drivers/BSP/mpu6050/mpu6050.c ****     if (status != MPU6050_ERROR_NONE)
 1360              		.loc 1 53 5 is_stmt 1 view .LVU250
  53:Drivers/BSP/mpu6050/mpu6050.c ****     if (status != MPU6050_ERROR_NONE)
 1361              		.loc 1 53 8 is_stmt 0 view .LVU251
 1362 0088 0028     		cmp	r0, #0
 1363 008a C9D1     		bne	.L63
  59:Drivers/BSP/mpu6050/mpu6050.c ****     status = MPU6050_ReadByte(dev, ACCEL_CONFIG, &c);
 1364              		.loc 1 59 5 is_stmt 1 view .LVU252
  59:Drivers/BSP/mpu6050/mpu6050.c ****     status = MPU6050_ReadByte(dev, ACCEL_CONFIG, &c);
 1365              		.loc 1 59 14 is_stmt 0 view .LVU253
ARM GAS  C:\Users\jsauerer\AppData\Local\Temp\ccDLNG3v.s 			page 31


 1366 008c 0DF10702 		add	r2, sp, #7
 1367 0090 1C21     		movs	r1, #28
 1368 0092 2046     		mov	r0, r4
 1369              	.LVL96:
  59:Drivers/BSP/mpu6050/mpu6050.c ****     status = MPU6050_ReadByte(dev, ACCEL_CONFIG, &c);
 1370              		.loc 1 59 14 view .LVU254
 1371 0094 FFF7FEFF 		bl	MPU6050_ReadByte
 1372              	.LVL97:
  60:Drivers/BSP/mpu6050/mpu6050.c ****     if (status != MPU6050_ERROR_NONE)
 1373              		.loc 1 60 5 is_stmt 1 view .LVU255
  60:Drivers/BSP/mpu6050/mpu6050.c ****     if (status != MPU6050_ERROR_NONE)
 1374              		.loc 1 60 8 is_stmt 0 view .LVU256
 1375 0098 0028     		cmp	r0, #0
 1376 009a C1D1     		bne	.L63
  64:Drivers/BSP/mpu6050/mpu6050.c ****     status = MPU6050_WriteByte(dev, ACCEL_CONFIG, c & ~0xE0); // Clear self-test bits [7:5]
 1377              		.loc 1 64 5 is_stmt 1 view .LVU257
  64:Drivers/BSP/mpu6050/mpu6050.c ****     status = MPU6050_WriteByte(dev, ACCEL_CONFIG, c & ~0xE0); // Clear self-test bits [7:5]
 1378              		.loc 1 64 14 is_stmt 0 view .LVU258
 1379 009c 9DF80720 		ldrb	r2, [sp, #7]	@ zero_extendqisi2
 1380 00a0 02F01F02 		and	r2, r2, #31
 1381 00a4 1C21     		movs	r1, #28
 1382 00a6 2046     		mov	r0, r4
 1383              	.LVL98:
  64:Drivers/BSP/mpu6050/mpu6050.c ****     status = MPU6050_WriteByte(dev, ACCEL_CONFIG, c & ~0xE0); // Clear self-test bits [7:5]
 1384              		.loc 1 64 14 view .LVU259
 1385 00a8 FFF7FEFF 		bl	MPU6050_WriteByte
 1386              	.LVL99:
  65:Drivers/BSP/mpu6050/mpu6050.c ****     if (status != MPU6050_ERROR_NONE)
 1387              		.loc 1 65 5 is_stmt 1 view .LVU260
  65:Drivers/BSP/mpu6050/mpu6050.c ****     if (status != MPU6050_ERROR_NONE)
 1388              		.loc 1 65 8 is_stmt 0 view .LVU261
 1389 00ac 0028     		cmp	r0, #0
 1390 00ae B7D1     		bne	.L63
  69:Drivers/BSP/mpu6050/mpu6050.c ****     status = MPU6050_WriteByte(dev, ACCEL_CONFIG, c & ~0x18); // Clear AFS bits [4:3]
 1391              		.loc 1 69 5 is_stmt 1 view .LVU262
  69:Drivers/BSP/mpu6050/mpu6050.c ****     status = MPU6050_WriteByte(dev, ACCEL_CONFIG, c & ~0x18); // Clear AFS bits [4:3]
 1392              		.loc 1 69 14 is_stmt 0 view .LVU263
 1393 00b0 9DF80720 		ldrb	r2, [sp, #7]	@ zero_extendqisi2
 1394 00b4 02F0E702 		and	r2, r2, #231
 1395 00b8 1C21     		movs	r1, #28
 1396 00ba 2046     		mov	r0, r4
 1397              	.LVL100:
  69:Drivers/BSP/mpu6050/mpu6050.c ****     status = MPU6050_WriteByte(dev, ACCEL_CONFIG, c & ~0x18); // Clear AFS bits [4:3]
 1398              		.loc 1 69 14 view .LVU264
 1399 00bc FFF7FEFF 		bl	MPU6050_WriteByte
 1400              	.LVL101:
  70:Drivers/BSP/mpu6050/mpu6050.c ****     if (status != MPU6050_ERROR_NONE)
 1401              		.loc 1 70 5 is_stmt 1 view .LVU265
  70:Drivers/BSP/mpu6050/mpu6050.c ****     if (status != MPU6050_ERROR_NONE)
 1402              		.loc 1 70 8 is_stmt 0 view .LVU266
 1403 00c0 0028     		cmp	r0, #0
 1404 00c2 ADD1     		bne	.L63
  74:Drivers/BSP/mpu6050/mpu6050.c ****     status = MPU6050_WriteByte(dev, ACCEL_CONFIG, c | dev->Data.ascale << 3); // Set full scale ran
 1405              		.loc 1 74 5 is_stmt 1 view .LVU267
  74:Drivers/BSP/mpu6050/mpu6050.c ****     status = MPU6050_WriteByte(dev, ACCEL_CONFIG, c | dev->Data.ascale << 3); // Set full scale ran
 1406              		.loc 1 74 64 is_stmt 0 view .LVU268
 1407 00c4 2378     		ldrb	r3, [r4]	@ zero_extendqisi2
ARM GAS  C:\Users\jsauerer\AppData\Local\Temp\ccDLNG3v.s 			page 32


  74:Drivers/BSP/mpu6050/mpu6050.c ****     status = MPU6050_WriteByte(dev, ACCEL_CONFIG, c | dev->Data.ascale << 3); // Set full scale ran
 1408              		.loc 1 74 53 view .LVU269
 1409 00c6 9DF80720 		ldrb	r2, [sp, #7]	@ zero_extendqisi2
 1410 00ca 42EAC302 		orr	r2, r2, r3, lsl #3
  74:Drivers/BSP/mpu6050/mpu6050.c ****     status = MPU6050_WriteByte(dev, ACCEL_CONFIG, c | dev->Data.ascale << 3); // Set full scale ran
 1411              		.loc 1 74 14 view .LVU270
 1412 00ce D2B2     		uxtb	r2, r2
 1413 00d0 1C21     		movs	r1, #28
 1414 00d2 2046     		mov	r0, r4
 1415              	.LVL102:
  74:Drivers/BSP/mpu6050/mpu6050.c ****     status = MPU6050_WriteByte(dev, ACCEL_CONFIG, c | dev->Data.ascale << 3); // Set full scale ran
 1416              		.loc 1 74 14 view .LVU271
 1417 00d4 FFF7FEFF 		bl	MPU6050_WriteByte
 1418              	.LVL103:
  75:Drivers/BSP/mpu6050/mpu6050.c ****     if (status != MPU6050_ERROR_NONE)
 1419              		.loc 1 75 5 is_stmt 1 view .LVU272
  75:Drivers/BSP/mpu6050/mpu6050.c ****     if (status != MPU6050_ERROR_NONE)
 1420              		.loc 1 75 8 is_stmt 0 view .LVU273
 1421 00d8 0028     		cmp	r0, #0
 1422 00da A1D1     		bne	.L63
  85:Drivers/BSP/mpu6050/mpu6050.c ****     status = MPU6050_SetIntMotionEnabled(dev, 1); //Set Motion Detection interrupt enabled status.
 1423              		.loc 1 85 5 is_stmt 1 view .LVU274
  85:Drivers/BSP/mpu6050/mpu6050.c ****     status = MPU6050_SetIntMotionEnabled(dev, 1); //Set Motion Detection interrupt enabled status.
 1424              		.loc 1 85 14 is_stmt 0 view .LVU275
 1425 00dc 0121     		movs	r1, #1
 1426 00de 2046     		mov	r0, r4
 1427              	.LVL104:
  85:Drivers/BSP/mpu6050/mpu6050.c ****     status = MPU6050_SetIntMotionEnabled(dev, 1); //Set Motion Detection interrupt enabled status.
 1428              		.loc 1 85 14 view .LVU276
 1429 00e0 FFF7FEFF 		bl	MPU6050_SetIntMotionEnabled
 1430              	.LVL105:
  86:Drivers/BSP/mpu6050/mpu6050.c ****     if (status != MPU6050_ERROR_NONE)
 1431              		.loc 1 86 5 is_stmt 1 view .LVU277
  86:Drivers/BSP/mpu6050/mpu6050.c ****     if (status != MPU6050_ERROR_NONE)
 1432              		.loc 1 86 8 is_stmt 0 view .LVU278
 1433 00e4 0028     		cmp	r0, #0
 1434 00e6 9BD1     		bne	.L63
  90:Drivers/BSP/mpu6050/mpu6050.c ****     status = MPU6050_SetIntFreefallEnabled(dev, 1);
 1435              		.loc 1 90 5 is_stmt 1 view .LVU279
  90:Drivers/BSP/mpu6050/mpu6050.c ****     status = MPU6050_SetIntFreefallEnabled(dev, 1);
 1436              		.loc 1 90 14 is_stmt 0 view .LVU280
 1437 00e8 0121     		movs	r1, #1
 1438 00ea 2046     		mov	r0, r4
 1439              	.LVL106:
  90:Drivers/BSP/mpu6050/mpu6050.c ****     status = MPU6050_SetIntFreefallEnabled(dev, 1);
 1440              		.loc 1 90 14 view .LVU281
 1441 00ec FFF7FEFF 		bl	MPU6050_SetIntFreefallEnabled
 1442              	.LVL107:
  91:Drivers/BSP/mpu6050/mpu6050.c ****     if (status != MPU6050_ERROR_NONE)
 1443              		.loc 1 91 5 is_stmt 1 view .LVU282
  91:Drivers/BSP/mpu6050/mpu6050.c ****     if (status != MPU6050_ERROR_NONE)
 1444              		.loc 1 91 8 is_stmt 0 view .LVU283
 1445 00f0 0028     		cmp	r0, #0
 1446 00f2 95D1     		bne	.L63
  95:Drivers/BSP/mpu6050/mpu6050.c ****     status = MPU6050_SetIntZeroMotionEnabled(dev, 0);
 1447              		.loc 1 95 5 is_stmt 1 view .LVU284
  95:Drivers/BSP/mpu6050/mpu6050.c ****     status = MPU6050_SetIntZeroMotionEnabled(dev, 0);
ARM GAS  C:\Users\jsauerer\AppData\Local\Temp\ccDLNG3v.s 			page 33


 1448              		.loc 1 95 14 is_stmt 0 view .LVU285
 1449 00f4 0021     		movs	r1, #0
 1450 00f6 2046     		mov	r0, r4
 1451              	.LVL108:
  95:Drivers/BSP/mpu6050/mpu6050.c ****     status = MPU6050_SetIntZeroMotionEnabled(dev, 0);
 1452              		.loc 1 95 14 view .LVU286
 1453 00f8 FFF7FEFF 		bl	MPU6050_SetIntZeroMotionEnabled
 1454              	.LVL109:
  96:Drivers/BSP/mpu6050/mpu6050.c ****     if (status != MPU6050_ERROR_NONE)
 1455              		.loc 1 96 5 is_stmt 1 view .LVU287
  96:Drivers/BSP/mpu6050/mpu6050.c ****     if (status != MPU6050_ERROR_NONE)
 1456              		.loc 1 96 8 is_stmt 0 view .LVU288
 1457 00fc 0028     		cmp	r0, #0
 1458 00fe 8FD1     		bne	.L63
 100:Drivers/BSP/mpu6050/mpu6050.c ****     status = MPU6050_SetIntFIFOBufferOverflowEnabled(dev, 0);
 1459              		.loc 1 100 5 is_stmt 1 view .LVU289
 100:Drivers/BSP/mpu6050/mpu6050.c ****     status = MPU6050_SetIntFIFOBufferOverflowEnabled(dev, 0);
 1460              		.loc 1 100 14 is_stmt 0 view .LVU290
 1461 0100 0021     		movs	r1, #0
 1462 0102 2046     		mov	r0, r4
 1463              	.LVL110:
 100:Drivers/BSP/mpu6050/mpu6050.c ****     status = MPU6050_SetIntFIFOBufferOverflowEnabled(dev, 0);
 1464              		.loc 1 100 14 view .LVU291
 1465 0104 FFF7FEFF 		bl	MPU6050_SetIntFIFOBufferOverflowEnabled
 1466              	.LVL111:
 101:Drivers/BSP/mpu6050/mpu6050.c ****     if (status != MPU6050_ERROR_NONE)
 1467              		.loc 1 101 5 is_stmt 1 view .LVU292
 101:Drivers/BSP/mpu6050/mpu6050.c ****     if (status != MPU6050_ERROR_NONE)
 1468              		.loc 1 101 8 is_stmt 0 view .LVU293
 1469 0108 0028     		cmp	r0, #0
 1470 010a 89D1     		bne	.L63
 105:Drivers/BSP/mpu6050/mpu6050.c ****     status = MPU6050_SetIntDataReadyEnabled(dev, 0); //New interrupt enabled status
 1471              		.loc 1 105 5 is_stmt 1 view .LVU294
 105:Drivers/BSP/mpu6050/mpu6050.c ****     status = MPU6050_SetIntDataReadyEnabled(dev, 0); //New interrupt enabled status
 1472              		.loc 1 105 14 is_stmt 0 view .LVU295
 1473 010c 0021     		movs	r1, #0
 1474 010e 2046     		mov	r0, r4
 1475              	.LVL112:
 105:Drivers/BSP/mpu6050/mpu6050.c ****     status = MPU6050_SetIntDataReadyEnabled(dev, 0); //New interrupt enabled status
 1476              		.loc 1 105 14 view .LVU296
 1477 0110 FFF7FEFF 		bl	MPU6050_SetIntDataReadyEnabled
 1478              	.LVL113:
 106:Drivers/BSP/mpu6050/mpu6050.c ****     if (status != MPU6050_ERROR_NONE)
 1479              		.loc 1 106 5 is_stmt 1 view .LVU297
 106:Drivers/BSP/mpu6050/mpu6050.c ****     if (status != MPU6050_ERROR_NONE)
 1480              		.loc 1 106 8 is_stmt 0 view .LVU298
 1481 0114 0028     		cmp	r0, #0
 1482 0116 83D1     		bne	.L63
 110:Drivers/BSP/mpu6050/mpu6050.c ****     status = MPU6050_SetDHPFMode(dev, 0); //New high-pass filter configuration more than 1.25Hz pas
 1483              		.loc 1 110 5 is_stmt 1 view .LVU299
 110:Drivers/BSP/mpu6050/mpu6050.c ****     status = MPU6050_SetDHPFMode(dev, 0); //New high-pass filter configuration more than 1.25Hz pas
 1484              		.loc 1 110 14 is_stmt 0 view .LVU300
 1485 0118 0021     		movs	r1, #0
 1486 011a 2046     		mov	r0, r4
 1487              	.LVL114:
 110:Drivers/BSP/mpu6050/mpu6050.c ****     status = MPU6050_SetDHPFMode(dev, 0); //New high-pass filter configuration more than 1.25Hz pas
 1488              		.loc 1 110 14 view .LVU301
ARM GAS  C:\Users\jsauerer\AppData\Local\Temp\ccDLNG3v.s 			page 34


 1489 011c FFF7FEFF 		bl	MPU6050_SetDHPFMode
 1490              	.LVL115:
 111:Drivers/BSP/mpu6050/mpu6050.c ****     if (status != MPU6050_ERROR_NONE)
 1491              		.loc 1 111 5 is_stmt 1 view .LVU302
 111:Drivers/BSP/mpu6050/mpu6050.c ****     if (status != MPU6050_ERROR_NONE)
 1492              		.loc 1 111 8 is_stmt 0 view .LVU303
 1493 0120 0028     		cmp	r0, #0
 1494 0122 7FF47DAF 		bne	.L63
 115:Drivers/BSP/mpu6050/mpu6050.c ****     status = MPU6050_SetDLPFMode(dev, 0);
 1495              		.loc 1 115 5 is_stmt 1 view .LVU304
 115:Drivers/BSP/mpu6050/mpu6050.c ****     status = MPU6050_SetDLPFMode(dev, 0);
 1496              		.loc 1 115 14 is_stmt 0 view .LVU305
 1497 0126 0021     		movs	r1, #0
 1498 0128 2046     		mov	r0, r4
 1499              	.LVL116:
 115:Drivers/BSP/mpu6050/mpu6050.c ****     status = MPU6050_SetDLPFMode(dev, 0);
 1500              		.loc 1 115 14 view .LVU306
 1501 012a FFF7FEFF 		bl	MPU6050_SetDLPFMode
 1502              	.LVL117:
 116:Drivers/BSP/mpu6050/mpu6050.c ****     if (status != MPU6050_ERROR_NONE)
 1503              		.loc 1 116 5 is_stmt 1 view .LVU307
 116:Drivers/BSP/mpu6050/mpu6050.c ****     if (status != MPU6050_ERROR_NONE)
 1504              		.loc 1 116 8 is_stmt 0 view .LVU308
 1505 012e 0028     		cmp	r0, #0
 1506 0130 7FF476AF 		bne	.L63
 120:Drivers/BSP/mpu6050/mpu6050.c ****     status = MPU6050_SetMotionDetectionThreshold(dev, 5); //20 - 2
 1507              		.loc 1 120 5 is_stmt 1 view .LVU309
 120:Drivers/BSP/mpu6050/mpu6050.c ****     status = MPU6050_SetMotionDetectionThreshold(dev, 5); //20 - 2
 1508              		.loc 1 120 14 is_stmt 0 view .LVU310
 1509 0134 0521     		movs	r1, #5
 1510 0136 2046     		mov	r0, r4
 1511              	.LVL118:
 120:Drivers/BSP/mpu6050/mpu6050.c ****     status = MPU6050_SetMotionDetectionThreshold(dev, 5); //20 - 2
 1512              		.loc 1 120 14 view .LVU311
 1513 0138 FFF7FEFF 		bl	MPU6050_SetMotionDetectionThreshold
 1514              	.LVL119:
 120:Drivers/BSP/mpu6050/mpu6050.c ****     status = MPU6050_SetMotionDetectionThreshold(dev, 5); //20 - 2
 1515              		.loc 1 120 12 view .LVU312
 1516 013c 40B2     		sxtb	r0, r0
 1517              	.LVL120:
 121:Drivers/BSP/mpu6050/mpu6050.c ****     if (status != MPU6050_ERROR_NONE)
 1518              		.loc 1 121 5 is_stmt 1 view .LVU313
 121:Drivers/BSP/mpu6050/mpu6050.c ****     if (status != MPU6050_ERROR_NONE)
 1519              		.loc 1 121 8 is_stmt 0 view .LVU314
 1520 013e 0028     		cmp	r0, #0
 1521 0140 7FF46EAF 		bne	.L63
 125:Drivers/BSP/mpu6050/mpu6050.c ****     status = MPU6050_SetMotionDetectionDuration(dev, 1); //New motion detection duration threshold 
 1522              		.loc 1 125 5 is_stmt 1 view .LVU315
 125:Drivers/BSP/mpu6050/mpu6050.c ****     status = MPU6050_SetMotionDetectionDuration(dev, 1); //New motion detection duration threshold 
 1523              		.loc 1 125 14 is_stmt 0 view .LVU316
 1524 0144 0121     		movs	r1, #1
 1525 0146 2046     		mov	r0, r4
 1526              	.LVL121:
 125:Drivers/BSP/mpu6050/mpu6050.c ****     status = MPU6050_SetMotionDetectionDuration(dev, 1); //New motion detection duration threshold 
 1527              		.loc 1 125 14 view .LVU317
 1528 0148 FFF7FEFF 		bl	MPU6050_SetMotionDetectionDuration
 1529              	.LVL122:
ARM GAS  C:\Users\jsauerer\AppData\Local\Temp\ccDLNG3v.s 			page 35


 126:Drivers/BSP/mpu6050/mpu6050.c ****     if (status != MPU6050_ERROR_NONE)
 1530              		.loc 1 126 5 is_stmt 1 view .LVU318
 126:Drivers/BSP/mpu6050/mpu6050.c ****     if (status != MPU6050_ERROR_NONE)
 1531              		.loc 1 126 8 is_stmt 0 view .LVU319
 1532 014c 0028     		cmp	r0, #0
 1533 014e 7FF467AF 		bne	.L63
 130:Drivers/BSP/mpu6050/mpu6050.c ****     status = MPU6050_SetInterruptMode(dev, 1); //New interrupt mode (0=active-high, 1=active-low)
 1534              		.loc 1 130 5 is_stmt 1 view .LVU320
 130:Drivers/BSP/mpu6050/mpu6050.c ****     status = MPU6050_SetInterruptMode(dev, 1); //New interrupt mode (0=active-high, 1=active-low)
 1535              		.loc 1 130 14 is_stmt 0 view .LVU321
 1536 0152 0121     		movs	r1, #1
 1537 0154 2046     		mov	r0, r4
 1538              	.LVL123:
 130:Drivers/BSP/mpu6050/mpu6050.c ****     status = MPU6050_SetInterruptMode(dev, 1); //New interrupt mode (0=active-high, 1=active-low)
 1539              		.loc 1 130 14 view .LVU322
 1540 0156 FFF7FEFF 		bl	MPU6050_SetInterruptMode
 1541              	.LVL124:
 131:Drivers/BSP/mpu6050/mpu6050.c ****     if (status != MPU6050_ERROR_NONE)
 1542              		.loc 1 131 5 is_stmt 1 view .LVU323
 131:Drivers/BSP/mpu6050/mpu6050.c ****     if (status != MPU6050_ERROR_NONE)
 1543              		.loc 1 131 8 is_stmt 0 view .LVU324
 1544 015a 0028     		cmp	r0, #0
 1545 015c 7FF460AF 		bne	.L63
 135:Drivers/BSP/mpu6050/mpu6050.c ****     status = MPU6050_SetInterruptDrive(dev, 0); //New interrupt drive mode (0=push-pull, 1=open-dra
 1546              		.loc 1 135 5 is_stmt 1 view .LVU325
 135:Drivers/BSP/mpu6050/mpu6050.c ****     status = MPU6050_SetInterruptDrive(dev, 0); //New interrupt drive mode (0=push-pull, 1=open-dra
 1547              		.loc 1 135 14 is_stmt 0 view .LVU326
 1548 0160 0021     		movs	r1, #0
 1549 0162 2046     		mov	r0, r4
 1550              	.LVL125:
 135:Drivers/BSP/mpu6050/mpu6050.c ****     status = MPU6050_SetInterruptDrive(dev, 0); //New interrupt drive mode (0=push-pull, 1=open-dra
 1551              		.loc 1 135 14 view .LVU327
 1552 0164 FFF7FEFF 		bl	MPU6050_SetInterruptDrive
 1553              	.LVL126:
 136:Drivers/BSP/mpu6050/mpu6050.c ****     if (status != MPU6050_ERROR_NONE)
 1554              		.loc 1 136 5 is_stmt 1 view .LVU328
 136:Drivers/BSP/mpu6050/mpu6050.c ****     if (status != MPU6050_ERROR_NONE)
 1555              		.loc 1 136 8 is_stmt 0 view .LVU329
 1556 0168 0028     		cmp	r0, #0
 1557 016a 7FF459AF 		bne	.L63
 140:Drivers/BSP/mpu6050/mpu6050.c ****     status = MPU6050_SetInterruptLatch(dev, 0); //New latch mode (0=50us-pulse, 1=latch-until-int-c
 1558              		.loc 1 140 5 is_stmt 1 view .LVU330
 140:Drivers/BSP/mpu6050/mpu6050.c ****     status = MPU6050_SetInterruptLatch(dev, 0); //New latch mode (0=50us-pulse, 1=latch-until-int-c
 1559              		.loc 1 140 14 is_stmt 0 view .LVU331
 1560 016e 0021     		movs	r1, #0
 1561 0170 2046     		mov	r0, r4
 1562              	.LVL127:
 140:Drivers/BSP/mpu6050/mpu6050.c ****     status = MPU6050_SetInterruptLatch(dev, 0); //New latch mode (0=50us-pulse, 1=latch-until-int-c
 1563              		.loc 1 140 14 view .LVU332
 1564 0172 FFF7FEFF 		bl	MPU6050_SetInterruptLatch
 1565              	.LVL128:
 141:Drivers/BSP/mpu6050/mpu6050.c ****     if (status != MPU6050_ERROR_NONE)
 1566              		.loc 1 141 5 is_stmt 1 view .LVU333
 141:Drivers/BSP/mpu6050/mpu6050.c ****     if (status != MPU6050_ERROR_NONE)
 1567              		.loc 1 141 8 is_stmt 0 view .LVU334
 1568 0176 0028     		cmp	r0, #0
 1569 0178 7FF452AF 		bne	.L63
ARM GAS  C:\Users\jsauerer\AppData\Local\Temp\ccDLNG3v.s 			page 36


 145:Drivers/BSP/mpu6050/mpu6050.c ****     status = MPU6050_SetInterruptLatchClear(dev, 1); //New latch clear mode (0=status-read-only, 1=
 1570              		.loc 1 145 5 is_stmt 1 view .LVU335
 145:Drivers/BSP/mpu6050/mpu6050.c ****     status = MPU6050_SetInterruptLatchClear(dev, 1); //New latch clear mode (0=status-read-only, 1=
 1571              		.loc 1 145 14 is_stmt 0 view .LVU336
 1572 017c 0121     		movs	r1, #1
 1573 017e 2046     		mov	r0, r4
 1574              	.LVL129:
 145:Drivers/BSP/mpu6050/mpu6050.c ****     status = MPU6050_SetInterruptLatchClear(dev, 1); //New latch clear mode (0=status-read-only, 1=
 1575              		.loc 1 145 14 view .LVU337
 1576 0180 FFF7FEFF 		bl	MPU6050_SetInterruptLatchClear
 1577              	.LVL130:
 146:Drivers/BSP/mpu6050/mpu6050.c ****     if (status != MPU6050_ERROR_NONE)
 1578              		.loc 1 146 5 is_stmt 1 view .LVU338
 146:Drivers/BSP/mpu6050/mpu6050.c ****     if (status != MPU6050_ERROR_NONE)
 1579              		.loc 1 146 8 is_stmt 0 view .LVU339
 1580 0184 0028     		cmp	r0, #0
 1581 0186 7FF44BAF 		bne	.L63
 150:Drivers/BSP/mpu6050/mpu6050.c ****     status = MPU6050_SetRate(dev, 7); //Set the rate to disable the gyroscope
 1582              		.loc 1 150 5 is_stmt 1 view .LVU340
 150:Drivers/BSP/mpu6050/mpu6050.c ****     status = MPU6050_SetRate(dev, 7); //Set the rate to disable the gyroscope
 1583              		.loc 1 150 14 is_stmt 0 view .LVU341
 1584 018a 0721     		movs	r1, #7
 1585 018c 2046     		mov	r0, r4
 1586              	.LVL131:
 150:Drivers/BSP/mpu6050/mpu6050.c ****     status = MPU6050_SetRate(dev, 7); //Set the rate to disable the gyroscope
 1587              		.loc 1 150 14 view .LVU342
 1588 018e FFF7FEFF 		bl	MPU6050_SetRate
 1589              	.LVL132:
 151:Drivers/BSP/mpu6050/mpu6050.c ****     if (status != MPU6050_ERROR_NONE)
 1590              		.loc 1 151 5 is_stmt 1 view .LVU343
 151:Drivers/BSP/mpu6050/mpu6050.c ****     if (status != MPU6050_ERROR_NONE)
 1591              		.loc 1 151 8 is_stmt 0 view .LVU344
 1592 0192 0028     		cmp	r0, #0
 1593 0194 7FF444AF 		bne	.L63
 155:Drivers/BSP/mpu6050/mpu6050.c ****     status = MPU6050_SetWakeFrequency(dev, 0); //Wake up the accelerometer at 1.25Hz to save power
 1594              		.loc 1 155 5 is_stmt 1 view .LVU345
 155:Drivers/BSP/mpu6050/mpu6050.c ****     status = MPU6050_SetWakeFrequency(dev, 0); //Wake up the accelerometer at 1.25Hz to save power
 1595              		.loc 1 155 14 is_stmt 0 view .LVU346
 1596 0198 0021     		movs	r1, #0
 1597 019a 2046     		mov	r0, r4
 1598              	.LVL133:
 155:Drivers/BSP/mpu6050/mpu6050.c ****     status = MPU6050_SetWakeFrequency(dev, 0); //Wake up the accelerometer at 1.25Hz to save power
 1599              		.loc 1 155 14 view .LVU347
 1600 019c FFF7FEFF 		bl	MPU6050_SetWakeFrequency
 1601              	.LVL134:
 156:Drivers/BSP/mpu6050/mpu6050.c ****     if (status != MPU6050_ERROR_NONE)
 1602              		.loc 1 156 5 is_stmt 1 view .LVU348
 156:Drivers/BSP/mpu6050/mpu6050.c ****     if (status != MPU6050_ERROR_NONE)
 1603              		.loc 1 156 8 is_stmt 0 view .LVU349
 1604 01a0 0028     		cmp	r0, #0
 1605 01a2 7FF43DAF 		bne	.L63
 160:Drivers/BSP/mpu6050/mpu6050.c ****     status = MPU6050_SetWakeCycleEnabled(dev, 1); //Enable only accel. ON - Low power mode, waking 
 1606              		.loc 1 160 5 is_stmt 1 view .LVU350
 160:Drivers/BSP/mpu6050/mpu6050.c ****     status = MPU6050_SetWakeCycleEnabled(dev, 1); //Enable only accel. ON - Low power mode, waking 
 1607              		.loc 1 160 14 is_stmt 0 view .LVU351
 1608 01a6 0121     		movs	r1, #1
 1609 01a8 2046     		mov	r0, r4
ARM GAS  C:\Users\jsauerer\AppData\Local\Temp\ccDLNG3v.s 			page 37


 1610              	.LVL135:
 160:Drivers/BSP/mpu6050/mpu6050.c ****     status = MPU6050_SetWakeCycleEnabled(dev, 1); //Enable only accel. ON - Low power mode, waking 
 1611              		.loc 1 160 14 view .LVU352
 1612 01aa FFF7FEFF 		bl	MPU6050_SetWakeCycleEnabled
 1613              	.LVL136:
 161:Drivers/BSP/mpu6050/mpu6050.c ****     if (status != MPU6050_ERROR_NONE)
 1614              		.loc 1 161 5 is_stmt 1 view .LVU353
 161:Drivers/BSP/mpu6050/mpu6050.c ****     if (status != MPU6050_ERROR_NONE)
 1615              		.loc 1 161 8 is_stmt 0 view .LVU354
 1616 01ae 0028     		cmp	r0, #0
 1617 01b0 7FF436AF 		bne	.L63
 166:Drivers/BSP/mpu6050/mpu6050.c ****     MPU6050_Delay(50);
 1618              		.loc 1 166 5 is_stmt 1 view .LVU355
 1619 01b4 3220     		movs	r0, #50
 1620              	.LVL137:
 166:Drivers/BSP/mpu6050/mpu6050.c ****     MPU6050_Delay(50);
 1621              		.loc 1 166 5 is_stmt 0 view .LVU356
 1622 01b6 FFF7FEFF 		bl	MPU6050_Delay
 1623              	.LVL138:
 168:Drivers/BSP/mpu6050/mpu6050.c ****     status = MPU6050_SetTempSensorEnabled(dev, 0); //Disable tmp sensor
 1624              		.loc 1 168 5 is_stmt 1 view .LVU357
 168:Drivers/BSP/mpu6050/mpu6050.c ****     status = MPU6050_SetTempSensorEnabled(dev, 0); //Disable tmp sensor
 1625              		.loc 1 168 14 is_stmt 0 view .LVU358
 1626 01ba 0021     		movs	r1, #0
 1627 01bc 2046     		mov	r0, r4
 1628 01be FFF7FEFF 		bl	MPU6050_SetTempSensorEnabled
 1629              	.LVL139:
 169:Drivers/BSP/mpu6050/mpu6050.c ****     if (status != MPU6050_ERROR_NONE)
 1630              		.loc 1 169 5 is_stmt 1 view .LVU359
 169:Drivers/BSP/mpu6050/mpu6050.c ****     if (status != MPU6050_ERROR_NONE)
 1631              		.loc 1 169 8 is_stmt 0 view .LVU360
 1632 01c2 0028     		cmp	r0, #0
 1633 01c4 7FF42CAF 		bne	.L63
 173:Drivers/BSP/mpu6050/mpu6050.c ****     status = MPU6050_SetStandbyXGyroEnabled(dev, 1); //Disable GyroX
 1634              		.loc 1 173 5 is_stmt 1 view .LVU361
 173:Drivers/BSP/mpu6050/mpu6050.c ****     status = MPU6050_SetStandbyXGyroEnabled(dev, 1); //Disable GyroX
 1635              		.loc 1 173 14 is_stmt 0 view .LVU362
 1636 01c8 0121     		movs	r1, #1
 1637 01ca 2046     		mov	r0, r4
 1638              	.LVL140:
 173:Drivers/BSP/mpu6050/mpu6050.c ****     status = MPU6050_SetStandbyXGyroEnabled(dev, 1); //Disable GyroX
 1639              		.loc 1 173 14 view .LVU363
 1640 01cc FFF7FEFF 		bl	MPU6050_SetStandbyXGyroEnabled
 1641              	.LVL141:
 174:Drivers/BSP/mpu6050/mpu6050.c ****     if (status != MPU6050_ERROR_NONE)
 1642              		.loc 1 174 5 is_stmt 1 view .LVU364
 174:Drivers/BSP/mpu6050/mpu6050.c ****     if (status != MPU6050_ERROR_NONE)
 1643              		.loc 1 174 8 is_stmt 0 view .LVU365
 1644 01d0 0028     		cmp	r0, #0
 1645 01d2 7FF425AF 		bne	.L63
 178:Drivers/BSP/mpu6050/mpu6050.c ****     status = MPU6050_SetStandbyYGyroEnabled(dev, 1); //Disable GyroY
 1646              		.loc 1 178 5 is_stmt 1 view .LVU366
 178:Drivers/BSP/mpu6050/mpu6050.c ****     status = MPU6050_SetStandbyYGyroEnabled(dev, 1); //Disable GyroY
 1647              		.loc 1 178 14 is_stmt 0 view .LVU367
 1648 01d6 0121     		movs	r1, #1
 1649 01d8 2046     		mov	r0, r4
 1650              	.LVL142:
ARM GAS  C:\Users\jsauerer\AppData\Local\Temp\ccDLNG3v.s 			page 38


 178:Drivers/BSP/mpu6050/mpu6050.c ****     status = MPU6050_SetStandbyYGyroEnabled(dev, 1); //Disable GyroY
 1651              		.loc 1 178 14 view .LVU368
 1652 01da FFF7FEFF 		bl	MPU6050_SetStandbyYGyroEnabled
 1653              	.LVL143:
 179:Drivers/BSP/mpu6050/mpu6050.c ****     if (status != MPU6050_ERROR_NONE)
 1654              		.loc 1 179 5 is_stmt 1 view .LVU369
 179:Drivers/BSP/mpu6050/mpu6050.c ****     if (status != MPU6050_ERROR_NONE)
 1655              		.loc 1 179 8 is_stmt 0 view .LVU370
 1656 01de 0028     		cmp	r0, #0
 1657 01e0 7FF41EAF 		bne	.L63
 183:Drivers/BSP/mpu6050/mpu6050.c ****     status = MPU6050_SetStandbyZGyroEnabled(dev, 1); //Disable GyroZ
 1658              		.loc 1 183 5 is_stmt 1 view .LVU371
 183:Drivers/BSP/mpu6050/mpu6050.c ****     status = MPU6050_SetStandbyZGyroEnabled(dev, 1); //Disable GyroZ
 1659              		.loc 1 183 14 is_stmt 0 view .LVU372
 1660 01e4 0121     		movs	r1, #1
 1661 01e6 2046     		mov	r0, r4
 1662              	.LVL144:
 183:Drivers/BSP/mpu6050/mpu6050.c ****     status = MPU6050_SetStandbyZGyroEnabled(dev, 1); //Disable GyroZ
 1663              		.loc 1 183 14 view .LVU373
 1664 01e8 FFF7FEFF 		bl	MPU6050_SetStandbyZGyroEnabled
 1665              	.LVL145:
 184:Drivers/BSP/mpu6050/mpu6050.c ****     if (status != MPU6050_ERROR_NONE)
 1666              		.loc 1 184 5 is_stmt 1 view .LVU374
 1667 01ec 18E7     		b	.L63
 1668              		.cfi_endproc
 1669              	.LFE111:
 1671              		.text
 1672              	.Letext0:
 1673              		.file 2 "c:\\vsarm\\armcc\\arm-none-eabi\\include\\machine\\_default_types.h"
 1674              		.file 3 "c:\\vsarm\\armcc\\arm-none-eabi\\include\\sys\\_stdint.h"
 1675              		.file 4 "Drivers/BSP/mpu6050/mpu6050_def.h"
 1676              		.file 5 "c:\\vsarm\\armcc\\arm-none-eabi\\include\\sys\\lock.h"
 1677              		.file 6 "c:\\vsarm\\armcc\\arm-none-eabi\\include\\sys\\_types.h"
 1678              		.file 7 "c:\\vsarm\\armcc\\lib\\gcc\\arm-none-eabi\\9.2.1\\include\\stddef.h"
 1679              		.file 8 "c:\\vsarm\\armcc\\arm-none-eabi\\include\\sys\\reent.h"
 1680              		.file 9 "c:\\vsarm\\armcc\\arm-none-eabi\\include\\math.h"
 1681              		.file 10 "Drivers/CMSIS/Include/core_cm3.h"
 1682              		.file 11 "Drivers/CMSIS/Device/ST/STM32F1xx/Include/system_stm32f1xx.h"
 1683              		.file 12 "Drivers/CMSIS/Device/ST/STM32F1xx/Include/stm32f103xb.h"
 1684              		.file 13 "Drivers/STM32F1xx_HAL_Driver/Inc/stm32f1xx_hal_def.h"
 1685              		.file 14 "Drivers/STM32F1xx_HAL_Driver/Inc/stm32f1xx_hal_dma.h"
 1686              		.file 15 "Drivers/STM32F1xx_HAL_Driver/Inc/stm32f1xx_hal_i2c.h"
 1687              		.file 16 "Drivers/STM32F1xx_HAL_Driver/Inc/stm32f1xx_hal.h"
 1688              		.file 17 "App/Inc/hw_i2c.h"
 1689              		.file 18 "Drivers/BSP/mpu6050/mpu6050_platform.h"
ARM GAS  C:\Users\jsauerer\AppData\Local\Temp\ccDLNG3v.s 			page 39

