ARM GAS  C:\Users\jsauerer\AppData\Local\Temp\ccrZpiNJ.s 			page 1


   1              		.cpu cortex-m3
   2              		.eabi_attribute 20, 1
   3              		.eabi_attribute 21, 1
   4              		.eabi_attribute 23, 3
   5              		.eabi_attribute 24, 1
   6              		.eabi_attribute 25, 1
   7              		.eabi_attribute 26, 1
   8              		.eabi_attribute 30, 1
   9              		.eabi_attribute 34, 1
  10              		.eabi_attribute 18, 4
  11              		.file	"mpu6050_platform.c"
  12              		.text
  13              	.Ltext0:
  14              		.cfi_sections	.debug_frame
  15              		.section	.text.MPU6050IrqHandler,"ax",%progbits
  16              		.align	1
  17              		.global	MPU6050IrqHandler
  18              		.arch armv7-m
  19              		.syntax unified
  20              		.thumb
  21              		.thumb_func
  22              		.fpu softvfp
  24              	MPU6050IrqHandler:
  25              	.LVL0:
  26              	.LFB111:
  27              		.file 1 "Drivers/BSP/mpu6050/mpu6050_platform.c"
   1:Drivers/BSP/mpu6050/mpu6050_platform.c **** #include "mpu6050_platform.h"
   2:Drivers/BSP/mpu6050/mpu6050_platform.c **** #include "mpu6050.h"
   3:Drivers/BSP/mpu6050/mpu6050_platform.c **** #include "hw.h"
   4:Drivers/BSP/mpu6050/mpu6050_platform.c **** 
   5:Drivers/BSP/mpu6050/mpu6050_platform.c **** MPU6050_Dev_t MPU6050Dev;
   6:Drivers/BSP/mpu6050/mpu6050_platform.c **** 
   7:Drivers/BSP/mpu6050/mpu6050_platform.c **** void MPU6050IrqHandler(void *context)
   8:Drivers/BSP/mpu6050/mpu6050_platform.c **** {
  28              		.loc 1 8 1 view -0
  29              		.cfi_startproc
  30              		@ args = 0, pretend = 0, frame = 0
  31              		@ frame_needed = 0, uses_anonymous_args = 0
  32              		@ link register save eliminated.
   9:Drivers/BSP/mpu6050/mpu6050_platform.c ****     //vcom_Trace((uint8_t*)"Test",5);
  10:Drivers/BSP/mpu6050/mpu6050_platform.c **** }
  33              		.loc 1 10 1 view .LVU1
  34 0000 7047     		bx	lr
  35              		.cfi_endproc
  36              	.LFE111:
  38              		.section	.text.MPU6050_SetIntIrq,"ax",%progbits
  39              		.align	1
  40              		.global	MPU6050_SetIntIrq
  41              		.syntax unified
  42              		.thumb
  43              		.thumb_func
  44              		.fpu softvfp
  46              	MPU6050_SetIntIrq:
  47              	.LVL1:
  48              	.LFB113:
  11:Drivers/BSP/mpu6050/mpu6050_platform.c **** 
  12:Drivers/BSP/mpu6050/mpu6050_platform.c **** MPU6050_Error MPU6050_Init(void)
ARM GAS  C:\Users\jsauerer\AppData\Local\Temp\ccrZpiNJ.s 			page 2


  13:Drivers/BSP/mpu6050/mpu6050_platform.c **** {
  14:Drivers/BSP/mpu6050/mpu6050_platform.c ****     MPU6050_Error status = MPU6050_ERROR_NONE;
  15:Drivers/BSP/mpu6050/mpu6050_platform.c ****     int16_t acc[3];
  16:Drivers/BSP/mpu6050/mpu6050_platform.c ****     MPU6050Dev.Data.gscale = GFS_250DPS;
  17:Drivers/BSP/mpu6050/mpu6050_platform.c ****     MPU6050Dev.Data.ascale = AFS_2G;
  18:Drivers/BSP/mpu6050/mpu6050_platform.c ****     MPU6050Dev.irqFlag = false;
  19:Drivers/BSP/mpu6050/mpu6050_platform.c ****     MPU6050Dev.I2cDevAddr = MPU6050_ADDRESS;
  20:Drivers/BSP/mpu6050/mpu6050_platform.c **** 
  21:Drivers/BSP/mpu6050/mpu6050_platform.c ****     // wake up device-don't need this here if using calibration function below
  22:Drivers/BSP/mpu6050/mpu6050_platform.c ****     HW_I2C_WriteByte(MPU6050Dev.I2cDevAddr, PWR_MGMT_1, 0x00); // Clear sleep mode bit (6), enable 
  23:Drivers/BSP/mpu6050/mpu6050_platform.c ****     MPU6050_Delay(100); // Delay 100 ms for PLL to get established on x-axis gyro; should check for
  24:Drivers/BSP/mpu6050/mpu6050_platform.c **** 
  25:Drivers/BSP/mpu6050/mpu6050_platform.c ****     // get stable time source
  26:Drivers/BSP/mpu6050/mpu6050_platform.c ****     HW_I2C_WriteByte(MPU6050Dev.I2cDevAddr, PWR_MGMT_1, 0x01); // Set clock source to be PLL with x
  27:Drivers/BSP/mpu6050/mpu6050_platform.c **** 
  28:Drivers/BSP/mpu6050/mpu6050_platform.c ****     // Configure Gyro and Accelerometer
  29:Drivers/BSP/mpu6050/mpu6050_platform.c ****     // Disable FSYNC and set accelerometer and gyro bandwidth to 44 and 42 Hz, respectively;
  30:Drivers/BSP/mpu6050/mpu6050_platform.c ****     // DLPF_CFG = bits 2:0 = 010; this sets the sample rate at 1 kHz for both
  31:Drivers/BSP/mpu6050/mpu6050_platform.c ****     // Maximum delay time is 4.9 ms corresponding to just over 200 Hz sample rate
  32:Drivers/BSP/mpu6050/mpu6050_platform.c ****     HW_I2C_WriteByte(MPU6050Dev.I2cDevAddr, CONFIG, 0x03);
  33:Drivers/BSP/mpu6050/mpu6050_platform.c **** 
  34:Drivers/BSP/mpu6050/mpu6050_platform.c ****     // Set sample rate = gyroscope output rate/(1 + SMPLRT_DIV)
  35:Drivers/BSP/mpu6050/mpu6050_platform.c ****     HW_I2C_WriteByte(MPU6050Dev.I2cDevAddr, SMPLRT_DIV, 0x00); // Use a 200 Hz rate; the same rate 
  36:Drivers/BSP/mpu6050/mpu6050_platform.c **** 
  37:Drivers/BSP/mpu6050/mpu6050_platform.c ****     // Set gyroscope full scale range
  38:Drivers/BSP/mpu6050/mpu6050_platform.c ****     // Range selects FS_SEL and AFS_SEL are 0 - 3, so 2-bit values are left-shifted into positions 
  39:Drivers/BSP/mpu6050/mpu6050_platform.c ****     uint8_t c = 0;
  40:Drivers/BSP/mpu6050/mpu6050_platform.c ****     HW_I2C_ReadByte(MPU6050Dev.I2cDevAddr, GYRO_CONFIG, &c);
  41:Drivers/BSP/mpu6050/mpu6050_platform.c ****     HW_I2C_WriteByte(MPU6050Dev.I2cDevAddr, GYRO_CONFIG, c & ~0xE0);                       // Clear
  42:Drivers/BSP/mpu6050/mpu6050_platform.c ****     HW_I2C_WriteByte(MPU6050Dev.I2cDevAddr, GYRO_CONFIG, c & ~c & ~0x18);                  // Clear
  43:Drivers/BSP/mpu6050/mpu6050_platform.c ****     HW_I2C_WriteByte(MPU6050Dev.I2cDevAddr, GYRO_CONFIG, c | MPU6050Dev.Data.gscale << 3); // Set f
  44:Drivers/BSP/mpu6050/mpu6050_platform.c **** 
  45:Drivers/BSP/mpu6050/mpu6050_platform.c ****     // Set accelerometer configuration
  46:Drivers/BSP/mpu6050/mpu6050_platform.c ****     HW_I2C_ReadByte(MPU6050Dev.I2cDevAddr, ACCEL_CONFIG, &c);
  47:Drivers/BSP/mpu6050/mpu6050_platform.c ****     HW_I2C_WriteByte(MPU6050Dev.I2cDevAddr, ACCEL_CONFIG, c & ~0xE0);                       // Clea
  48:Drivers/BSP/mpu6050/mpu6050_platform.c ****     HW_I2C_WriteByte(MPU6050Dev.I2cDevAddr, ACCEL_CONFIG, c & ~0x18);                       // Clea
  49:Drivers/BSP/mpu6050/mpu6050_platform.c ****     HW_I2C_WriteByte(MPU6050Dev.I2cDevAddr, ACCEL_CONFIG, c | MPU6050Dev.Data.ascale << 3); // Set 
  50:Drivers/BSP/mpu6050/mpu6050_platform.c **** 
  51:Drivers/BSP/mpu6050/mpu6050_platform.c ****     // Configure Interrupts and Bypass Enable
  52:Drivers/BSP/mpu6050/mpu6050_platform.c ****     // Set interrupt pin active high, push-pull, and clear on read of INT_STATUS, enable I2C_BYPASS
  53:Drivers/BSP/mpu6050/mpu6050_platform.c ****     // can join the I2C bus and all can be controlled by the Arduino as master
  54:Drivers/BSP/mpu6050/mpu6050_platform.c ****     HW_I2C_WriteByte(MPU6050Dev.I2cDevAddr, INT_PIN_CFG, 0x0);
  55:Drivers/BSP/mpu6050/mpu6050_platform.c ****     HW_I2C_WriteByte(MPU6050Dev.I2cDevAddr, INT_ENABLE, 0x01); // Enable data ready (bit 0) interru
  56:Drivers/BSP/mpu6050/mpu6050_platform.c ****     MPU6050_SetIntDataReadyEnabled(&MPU6050Dev,1);
  57:Drivers/BSP/mpu6050/mpu6050_platform.c ****     status = MPU6050_ReadAcc(&MPU6050Dev, acc);
  58:Drivers/BSP/mpu6050/mpu6050_platform.c ****     if (status != MPU6050_ERROR_NONE)
  59:Drivers/BSP/mpu6050/mpu6050_platform.c ****     {
  60:Drivers/BSP/mpu6050/mpu6050_platform.c ****         return status;
  61:Drivers/BSP/mpu6050/mpu6050_platform.c ****     }
  62:Drivers/BSP/mpu6050/mpu6050_platform.c **** 
  63:Drivers/BSP/mpu6050/mpu6050_platform.c ****     MPU6050_SetIntIrq(MPU6050IrqHandler);
  64:Drivers/BSP/mpu6050/mpu6050_platform.c **** 
  65:Drivers/BSP/mpu6050/mpu6050_platform.c ****     return status;
  66:Drivers/BSP/mpu6050/mpu6050_platform.c **** }
  67:Drivers/BSP/mpu6050/mpu6050_platform.c **** 
  68:Drivers/BSP/mpu6050/mpu6050_platform.c **** MPU6050_Error MPU6050_SetIntIrq(GpioIrqHandler *irqHandler)
  69:Drivers/BSP/mpu6050/mpu6050_platform.c **** {
ARM GAS  C:\Users\jsauerer\AppData\Local\Temp\ccrZpiNJ.s 			page 3


  49              		.loc 1 69 1 view -0
  50              		.cfi_startproc
  51              		@ args = 0, pretend = 0, frame = 16
  52              		@ frame_needed = 0, uses_anonymous_args = 0
  53              		.loc 1 69 1 is_stmt 0 view .LVU3
  54 0000 F0B5     		push	{r4, r5, r6, r7, lr}
  55              	.LCFI0:
  56              		.cfi_def_cfa_offset 20
  57              		.cfi_offset 4, -20
  58              		.cfi_offset 5, -16
  59              		.cfi_offset 6, -12
  60              		.cfi_offset 7, -8
  61              		.cfi_offset 14, -4
  62 0002 85B0     		sub	sp, sp, #20
  63              	.LCFI1:
  64              		.cfi_def_cfa_offset 40
  65 0004 0646     		mov	r6, r0
  70:Drivers/BSP/mpu6050/mpu6050_platform.c ****     GPIO_InitTypeDef initDef = {0};
  66              		.loc 1 70 5 is_stmt 1 view .LVU4
  67              		.loc 1 70 22 is_stmt 0 view .LVU5
  68 0006 0024     		movs	r4, #0
  69 0008 0394     		str	r4, [sp, #12]
  71:Drivers/BSP/mpu6050/mpu6050_platform.c ****     initDef.Pin = MPU_INT_PIN;
  70              		.loc 1 71 5 is_stmt 1 view .LVU6
  71              		.loc 1 71 17 is_stmt 0 view .LVU7
  72 000a 4FF48065 		mov	r5, #1024
  73 000e 0095     		str	r5, [sp]
  72:Drivers/BSP/mpu6050/mpu6050_platform.c ****     initDef.Mode = MPU_INT_MODE;
  74              		.loc 1 72 5 is_stmt 1 view .LVU8
  75              		.loc 1 72 18 is_stmt 0 view .LVU9
  76 0010 084B     		ldr	r3, .L4
  77 0012 0193     		str	r3, [sp, #4]
  73:Drivers/BSP/mpu6050/mpu6050_platform.c ****     initDef.Pull = MPU_INT_PULL;
  78              		.loc 1 73 5 is_stmt 1 view .LVU10
  79              		.loc 1 73 18 is_stmt 0 view .LVU11
  80 0014 0294     		str	r4, [sp, #8]
  74:Drivers/BSP/mpu6050/mpu6050_platform.c ****     HW_GPIO_Init(MPU_INT_PORT, MPU_INT_PIN, &initDef);
  81              		.loc 1 74 5 is_stmt 1 view .LVU12
  82 0016 084F     		ldr	r7, .L4+4
  83 0018 6A46     		mov	r2, sp
  84 001a 2946     		mov	r1, r5
  85 001c 3846     		mov	r0, r7
  86              	.LVL2:
  87              		.loc 1 74 5 is_stmt 0 view .LVU13
  88 001e FFF7FEFF 		bl	HW_GPIO_Init
  89              	.LVL3:
  75:Drivers/BSP/mpu6050/mpu6050_platform.c ****     HW_GPIO_SetIrq(MPU_INT_PORT, MPU_INT_PIN, 0, irqHandler);
  90              		.loc 1 75 5 is_stmt 1 view .LVU14
  91 0022 3346     		mov	r3, r6
  92 0024 2246     		mov	r2, r4
  93 0026 2946     		mov	r1, r5
  94 0028 3846     		mov	r0, r7
  95 002a FFF7FEFF 		bl	HW_GPIO_SetIrq
  96              	.LVL4:
  76:Drivers/BSP/mpu6050/mpu6050_platform.c ****     return MPU6050_ERROR_NONE;
  97              		.loc 1 76 5 view .LVU15
  77:Drivers/BSP/mpu6050/mpu6050_platform.c **** }
ARM GAS  C:\Users\jsauerer\AppData\Local\Temp\ccrZpiNJ.s 			page 4


  98              		.loc 1 77 1 is_stmt 0 view .LVU16
  99 002e 2046     		mov	r0, r4
 100 0030 05B0     		add	sp, sp, #20
 101              	.LCFI2:
 102              		.cfi_def_cfa_offset 20
 103              		@ sp needed
 104 0032 F0BD     		pop	{r4, r5, r6, r7, pc}
 105              	.LVL5:
 106              	.L5:
 107              		.loc 1 77 1 view .LVU17
 108              		.align	2
 109              	.L4:
 110 0034 00001110 		.word	269549568
 111 0038 000C0140 		.word	1073810432
 112              		.cfi_endproc
 113              	.LFE113:
 115              		.section	.text.MPU6050_Delay,"ax",%progbits
 116              		.align	1
 117              		.global	MPU6050_Delay
 118              		.syntax unified
 119              		.thumb
 120              		.thumb_func
 121              		.fpu softvfp
 123              	MPU6050_Delay:
 124              	.LVL6:
 125              	.LFB114:
  78:Drivers/BSP/mpu6050/mpu6050_platform.c **** 
  79:Drivers/BSP/mpu6050/mpu6050_platform.c **** void MPU6050_Delay(uint32_t delay)
  80:Drivers/BSP/mpu6050/mpu6050_platform.c **** {
 126              		.loc 1 80 1 is_stmt 1 view -0
 127              		.cfi_startproc
 128              		@ args = 0, pretend = 0, frame = 0
 129              		@ frame_needed = 0, uses_anonymous_args = 0
 130              		.loc 1 80 1 is_stmt 0 view .LVU19
 131 0000 08B5     		push	{r3, lr}
 132              	.LCFI3:
 133              		.cfi_def_cfa_offset 8
 134              		.cfi_offset 3, -8
 135              		.cfi_offset 14, -4
  81:Drivers/BSP/mpu6050/mpu6050_platform.c ****     HAL_Delay(delay);
 136              		.loc 1 81 5 is_stmt 1 view .LVU20
 137 0002 FFF7FEFF 		bl	HAL_Delay
 138              	.LVL7:
  82:Drivers/BSP/mpu6050/mpu6050_platform.c **** }
 139              		.loc 1 82 1 is_stmt 0 view .LVU21
 140 0006 08BD     		pop	{r3, pc}
 141              		.cfi_endproc
 142              	.LFE114:
 144              		.section	.text.MPU6050_Init,"ax",%progbits
 145              		.align	1
 146              		.global	MPU6050_Init
 147              		.syntax unified
 148              		.thumb
 149              		.thumb_func
 150              		.fpu softvfp
 152              	MPU6050_Init:
 153              	.LFB112:
ARM GAS  C:\Users\jsauerer\AppData\Local\Temp\ccrZpiNJ.s 			page 5


  13:Drivers/BSP/mpu6050/mpu6050_platform.c ****     MPU6050_Error status = MPU6050_ERROR_NONE;
 154              		.loc 1 13 1 is_stmt 1 view -0
 155              		.cfi_startproc
 156              		@ args = 0, pretend = 0, frame = 16
 157              		@ frame_needed = 0, uses_anonymous_args = 0
 158 0000 30B5     		push	{r4, r5, lr}
 159              	.LCFI4:
 160              		.cfi_def_cfa_offset 12
 161              		.cfi_offset 4, -12
 162              		.cfi_offset 5, -8
 163              		.cfi_offset 14, -4
 164 0002 85B0     		sub	sp, sp, #20
 165              	.LCFI5:
 166              		.cfi_def_cfa_offset 32
  14:Drivers/BSP/mpu6050/mpu6050_platform.c ****     int16_t acc[3];
 167              		.loc 1 14 5 view .LVU23
 168              	.LVL8:
  15:Drivers/BSP/mpu6050/mpu6050_platform.c ****     MPU6050Dev.Data.gscale = GFS_250DPS;
 169              		.loc 1 15 5 view .LVU24
  16:Drivers/BSP/mpu6050/mpu6050_platform.c ****     MPU6050Dev.Data.ascale = AFS_2G;
 170              		.loc 1 16 5 view .LVU25
  16:Drivers/BSP/mpu6050/mpu6050_platform.c ****     MPU6050Dev.Data.ascale = AFS_2G;
 171              		.loc 1 16 28 is_stmt 0 view .LVU26
 172 0004 3B4C     		ldr	r4, .L12
 173 0006 0025     		movs	r5, #0
 174 0008 6570     		strb	r5, [r4, #1]
  17:Drivers/BSP/mpu6050/mpu6050_platform.c ****     MPU6050Dev.irqFlag = false;
 175              		.loc 1 17 5 is_stmt 1 view .LVU27
  17:Drivers/BSP/mpu6050/mpu6050_platform.c ****     MPU6050Dev.irqFlag = false;
 176              		.loc 1 17 28 is_stmt 0 view .LVU28
 177 000a 2570     		strb	r5, [r4]
  18:Drivers/BSP/mpu6050/mpu6050_platform.c ****     MPU6050Dev.I2cDevAddr = MPU6050_ADDRESS;
 178              		.loc 1 18 5 is_stmt 1 view .LVU29
  18:Drivers/BSP/mpu6050/mpu6050_platform.c ****     MPU6050Dev.I2cDevAddr = MPU6050_ADDRESS;
 179              		.loc 1 18 24 is_stmt 0 view .LVU30
 180 000c A571     		strb	r5, [r4, #6]
  19:Drivers/BSP/mpu6050/mpu6050_platform.c **** 
 181              		.loc 1 19 5 is_stmt 1 view .LVU31
  19:Drivers/BSP/mpu6050/mpu6050_platform.c **** 
 182              		.loc 1 19 27 is_stmt 0 view .LVU32
 183 000e 6820     		movs	r0, #104
 184 0010 A070     		strb	r0, [r4, #2]
  22:Drivers/BSP/mpu6050/mpu6050_platform.c ****     MPU6050_Delay(100); // Delay 100 ms for PLL to get established on x-axis gyro; should check for
 185              		.loc 1 22 5 is_stmt 1 view .LVU33
 186 0012 2A46     		mov	r2, r5
 187 0014 6B21     		movs	r1, #107
 188 0016 FFF7FEFF 		bl	HW_I2C_WriteByte
 189              	.LVL9:
  23:Drivers/BSP/mpu6050/mpu6050_platform.c **** 
 190              		.loc 1 23 5 view .LVU34
 191 001a 6420     		movs	r0, #100
 192 001c FFF7FEFF 		bl	MPU6050_Delay
 193              	.LVL10:
  26:Drivers/BSP/mpu6050/mpu6050_platform.c **** 
 194              		.loc 1 26 5 view .LVU35
 195 0020 0122     		movs	r2, #1
 196 0022 6B21     		movs	r1, #107
ARM GAS  C:\Users\jsauerer\AppData\Local\Temp\ccrZpiNJ.s 			page 6


 197 0024 A078     		ldrb	r0, [r4, #2]	@ zero_extendqisi2
 198 0026 FFF7FEFF 		bl	HW_I2C_WriteByte
 199              	.LVL11:
  32:Drivers/BSP/mpu6050/mpu6050_platform.c **** 
 200              		.loc 1 32 5 view .LVU36
 201 002a 0322     		movs	r2, #3
 202 002c 1A21     		movs	r1, #26
 203 002e A078     		ldrb	r0, [r4, #2]	@ zero_extendqisi2
 204 0030 FFF7FEFF 		bl	HW_I2C_WriteByte
 205              	.LVL12:
  35:Drivers/BSP/mpu6050/mpu6050_platform.c **** 
 206              		.loc 1 35 5 view .LVU37
 207 0034 2A46     		mov	r2, r5
 208 0036 1921     		movs	r1, #25
 209 0038 A078     		ldrb	r0, [r4, #2]	@ zero_extendqisi2
 210 003a FFF7FEFF 		bl	HW_I2C_WriteByte
 211              	.LVL13:
  39:Drivers/BSP/mpu6050/mpu6050_platform.c ****     HW_I2C_ReadByte(MPU6050Dev.I2cDevAddr, GYRO_CONFIG, &c);
 212              		.loc 1 39 5 view .LVU38
  39:Drivers/BSP/mpu6050/mpu6050_platform.c ****     HW_I2C_ReadByte(MPU6050Dev.I2cDevAddr, GYRO_CONFIG, &c);
 213              		.loc 1 39 13 is_stmt 0 view .LVU39
 214 003e 8DF80750 		strb	r5, [sp, #7]
  40:Drivers/BSP/mpu6050/mpu6050_platform.c ****     HW_I2C_WriteByte(MPU6050Dev.I2cDevAddr, GYRO_CONFIG, c & ~0xE0);                       // Clear
 215              		.loc 1 40 5 is_stmt 1 view .LVU40
 216 0042 0DF10702 		add	r2, sp, #7
 217 0046 1B21     		movs	r1, #27
 218 0048 A078     		ldrb	r0, [r4, #2]	@ zero_extendqisi2
 219 004a FFF7FEFF 		bl	HW_I2C_ReadByte
 220              	.LVL14:
  41:Drivers/BSP/mpu6050/mpu6050_platform.c ****     HW_I2C_WriteByte(MPU6050Dev.I2cDevAddr, GYRO_CONFIG, c & ~c & ~0x18);                  // Clear
 221              		.loc 1 41 5 view .LVU41
 222 004e 9DF80720 		ldrb	r2, [sp, #7]	@ zero_extendqisi2
 223 0052 02F01F02 		and	r2, r2, #31
 224 0056 1B21     		movs	r1, #27
 225 0058 A078     		ldrb	r0, [r4, #2]	@ zero_extendqisi2
 226 005a FFF7FEFF 		bl	HW_I2C_WriteByte
 227              	.LVL15:
  42:Drivers/BSP/mpu6050/mpu6050_platform.c ****     HW_I2C_WriteByte(MPU6050Dev.I2cDevAddr, GYRO_CONFIG, c | MPU6050Dev.Data.gscale << 3); // Set f
 228              		.loc 1 42 5 view .LVU42
 229 005e 2A46     		mov	r2, r5
 230 0060 1B21     		movs	r1, #27
 231 0062 A078     		ldrb	r0, [r4, #2]	@ zero_extendqisi2
 232 0064 FFF7FEFF 		bl	HW_I2C_WriteByte
 233              	.LVL16:
  43:Drivers/BSP/mpu6050/mpu6050_platform.c **** 
 234              		.loc 1 43 5 view .LVU43
  43:Drivers/BSP/mpu6050/mpu6050_platform.c **** 
 235              		.loc 1 43 77 is_stmt 0 view .LVU44
 236 0068 6378     		ldrb	r3, [r4, #1]	@ zero_extendqisi2
  43:Drivers/BSP/mpu6050/mpu6050_platform.c **** 
 237              		.loc 1 43 60 view .LVU45
 238 006a 9DF80720 		ldrb	r2, [sp, #7]	@ zero_extendqisi2
 239 006e 42EAC302 		orr	r2, r2, r3, lsl #3
  43:Drivers/BSP/mpu6050/mpu6050_platform.c **** 
 240              		.loc 1 43 5 view .LVU46
 241 0072 D2B2     		uxtb	r2, r2
 242 0074 1B21     		movs	r1, #27
ARM GAS  C:\Users\jsauerer\AppData\Local\Temp\ccrZpiNJ.s 			page 7


 243 0076 A078     		ldrb	r0, [r4, #2]	@ zero_extendqisi2
 244 0078 FFF7FEFF 		bl	HW_I2C_WriteByte
 245              	.LVL17:
  46:Drivers/BSP/mpu6050/mpu6050_platform.c ****     HW_I2C_WriteByte(MPU6050Dev.I2cDevAddr, ACCEL_CONFIG, c & ~0xE0);                       // Clea
 246              		.loc 1 46 5 is_stmt 1 view .LVU47
 247 007c 0DF10702 		add	r2, sp, #7
 248 0080 1C21     		movs	r1, #28
 249 0082 A078     		ldrb	r0, [r4, #2]	@ zero_extendqisi2
 250 0084 FFF7FEFF 		bl	HW_I2C_ReadByte
 251              	.LVL18:
  47:Drivers/BSP/mpu6050/mpu6050_platform.c ****     HW_I2C_WriteByte(MPU6050Dev.I2cDevAddr, ACCEL_CONFIG, c & ~0x18);                       // Clea
 252              		.loc 1 47 5 view .LVU48
 253 0088 9DF80720 		ldrb	r2, [sp, #7]	@ zero_extendqisi2
 254 008c 02F01F02 		and	r2, r2, #31
 255 0090 1C21     		movs	r1, #28
 256 0092 A078     		ldrb	r0, [r4, #2]	@ zero_extendqisi2
 257 0094 FFF7FEFF 		bl	HW_I2C_WriteByte
 258              	.LVL19:
  48:Drivers/BSP/mpu6050/mpu6050_platform.c ****     HW_I2C_WriteByte(MPU6050Dev.I2cDevAddr, ACCEL_CONFIG, c | MPU6050Dev.Data.ascale << 3); // Set 
 259              		.loc 1 48 5 view .LVU49
 260 0098 9DF80720 		ldrb	r2, [sp, #7]	@ zero_extendqisi2
 261 009c 02F0E702 		and	r2, r2, #231
 262 00a0 1C21     		movs	r1, #28
 263 00a2 A078     		ldrb	r0, [r4, #2]	@ zero_extendqisi2
 264 00a4 FFF7FEFF 		bl	HW_I2C_WriteByte
 265              	.LVL20:
  49:Drivers/BSP/mpu6050/mpu6050_platform.c **** 
 266              		.loc 1 49 5 view .LVU50
  49:Drivers/BSP/mpu6050/mpu6050_platform.c **** 
 267              		.loc 1 49 78 is_stmt 0 view .LVU51
 268 00a8 2378     		ldrb	r3, [r4]	@ zero_extendqisi2
  49:Drivers/BSP/mpu6050/mpu6050_platform.c **** 
 269              		.loc 1 49 61 view .LVU52
 270 00aa 9DF80720 		ldrb	r2, [sp, #7]	@ zero_extendqisi2
 271 00ae 42EAC302 		orr	r2, r2, r3, lsl #3
  49:Drivers/BSP/mpu6050/mpu6050_platform.c **** 
 272              		.loc 1 49 5 view .LVU53
 273 00b2 D2B2     		uxtb	r2, r2
 274 00b4 1C21     		movs	r1, #28
 275 00b6 A078     		ldrb	r0, [r4, #2]	@ zero_extendqisi2
 276 00b8 FFF7FEFF 		bl	HW_I2C_WriteByte
 277              	.LVL21:
  54:Drivers/BSP/mpu6050/mpu6050_platform.c ****     HW_I2C_WriteByte(MPU6050Dev.I2cDevAddr, INT_ENABLE, 0x01); // Enable data ready (bit 0) interru
 278              		.loc 1 54 5 is_stmt 1 view .LVU54
 279 00bc 2A46     		mov	r2, r5
 280 00be 3721     		movs	r1, #55
 281 00c0 A078     		ldrb	r0, [r4, #2]	@ zero_extendqisi2
 282 00c2 FFF7FEFF 		bl	HW_I2C_WriteByte
 283              	.LVL22:
  55:Drivers/BSP/mpu6050/mpu6050_platform.c ****     MPU6050_SetIntDataReadyEnabled(&MPU6050Dev,1);
 284              		.loc 1 55 5 view .LVU55
 285 00c6 0122     		movs	r2, #1
 286 00c8 3821     		movs	r1, #56
 287 00ca A078     		ldrb	r0, [r4, #2]	@ zero_extendqisi2
 288 00cc FFF7FEFF 		bl	HW_I2C_WriteByte
 289              	.LVL23:
  56:Drivers/BSP/mpu6050/mpu6050_platform.c ****     status = MPU6050_ReadAcc(&MPU6050Dev, acc);
ARM GAS  C:\Users\jsauerer\AppData\Local\Temp\ccrZpiNJ.s 			page 8


 290              		.loc 1 56 5 view .LVU56
 291 00d0 0121     		movs	r1, #1
 292 00d2 2046     		mov	r0, r4
 293 00d4 FFF7FEFF 		bl	MPU6050_SetIntDataReadyEnabled
 294              	.LVL24:
  57:Drivers/BSP/mpu6050/mpu6050_platform.c ****     if (status != MPU6050_ERROR_NONE)
 295              		.loc 1 57 5 view .LVU57
  57:Drivers/BSP/mpu6050/mpu6050_platform.c ****     if (status != MPU6050_ERROR_NONE)
 296              		.loc 1 57 14 is_stmt 0 view .LVU58
 297 00d8 02A9     		add	r1, sp, #8
 298 00da 2046     		mov	r0, r4
 299 00dc FFF7FEFF 		bl	MPU6050_ReadAcc
 300              	.LVL25:
  58:Drivers/BSP/mpu6050/mpu6050_platform.c ****     {
 301              		.loc 1 58 5 is_stmt 1 view .LVU59
  58:Drivers/BSP/mpu6050/mpu6050_platform.c ****     {
 302              		.loc 1 58 8 is_stmt 0 view .LVU60
 303 00e0 0446     		mov	r4, r0
 304 00e2 10B1     		cbz	r0, .L11
 305              	.LVL26:
 306              	.L9:
  66:Drivers/BSP/mpu6050/mpu6050_platform.c **** 
 307              		.loc 1 66 1 view .LVU61
 308 00e4 2046     		mov	r0, r4
 309 00e6 05B0     		add	sp, sp, #20
 310              	.LCFI6:
 311              		.cfi_remember_state
 312              		.cfi_def_cfa_offset 12
 313              		@ sp needed
 314 00e8 30BD     		pop	{r4, r5, pc}
 315              	.LVL27:
 316              	.L11:
 317              	.LCFI7:
 318              		.cfi_restore_state
  63:Drivers/BSP/mpu6050/mpu6050_platform.c **** 
 319              		.loc 1 63 5 is_stmt 1 view .LVU62
 320 00ea 0348     		ldr	r0, .L12+4
 321              	.LVL28:
  63:Drivers/BSP/mpu6050/mpu6050_platform.c **** 
 322              		.loc 1 63 5 is_stmt 0 view .LVU63
 323 00ec FFF7FEFF 		bl	MPU6050_SetIntIrq
 324              	.LVL29:
  65:Drivers/BSP/mpu6050/mpu6050_platform.c **** }
 325              		.loc 1 65 5 is_stmt 1 view .LVU64
  65:Drivers/BSP/mpu6050/mpu6050_platform.c **** }
 326              		.loc 1 65 12 is_stmt 0 view .LVU65
 327 00f0 F8E7     		b	.L9
 328              	.L13:
 329 00f2 00BF     		.align	2
 330              	.L12:
 331 00f4 00000000 		.word	MPU6050Dev
 332 00f8 00000000 		.word	MPU6050IrqHandler
 333              		.cfi_endproc
 334              	.LFE112:
 336              		.section	.text.MPU6050_ReadByte,"ax",%progbits
 337              		.align	1
 338              		.global	MPU6050_ReadByte
ARM GAS  C:\Users\jsauerer\AppData\Local\Temp\ccrZpiNJ.s 			page 9


 339              		.syntax unified
 340              		.thumb
 341              		.thumb_func
 342              		.fpu softvfp
 344              	MPU6050_ReadByte:
 345              	.LVL30:
 346              	.LFB115:
  83:Drivers/BSP/mpu6050/mpu6050_platform.c **** 
  84:Drivers/BSP/mpu6050/mpu6050_platform.c **** MPU6050_Error MPU6050_ReadByte(MPU6050_DEV dev, uint8_t index, uint8_t *pdata)
  85:Drivers/BSP/mpu6050/mpu6050_platform.c **** {
 347              		.loc 1 85 1 is_stmt 1 view -0
 348              		.cfi_startproc
 349              		@ args = 0, pretend = 0, frame = 0
 350              		@ frame_needed = 0, uses_anonymous_args = 0
 351              		.loc 1 85 1 is_stmt 0 view .LVU67
 352 0000 08B5     		push	{r3, lr}
 353              	.LCFI8:
 354              		.cfi_def_cfa_offset 8
 355              		.cfi_offset 3, -8
 356              		.cfi_offset 14, -4
  86:Drivers/BSP/mpu6050/mpu6050_platform.c ****     MPU6050_Error error = MPU6050_ERROR_NONE;
 357              		.loc 1 86 5 is_stmt 1 view .LVU68
 358              	.LVL31:
  87:Drivers/BSP/mpu6050/mpu6050_platform.c ****     int32_t status_int = 0;
 359              		.loc 1 87 5 view .LVU69
  88:Drivers/BSP/mpu6050/mpu6050_platform.c **** 
  89:Drivers/BSP/mpu6050/mpu6050_platform.c ****     status_int = HW_I2C_ReadByte(dev->I2cDevAddr, index, pdata);
 360              		.loc 1 89 5 view .LVU70
 361              		.loc 1 89 18 is_stmt 0 view .LVU71
 362 0002 8078     		ldrb	r0, [r0, #2]	@ zero_extendqisi2
 363              	.LVL32:
 364              		.loc 1 89 18 view .LVU72
 365 0004 FFF7FEFF 		bl	HW_I2C_ReadByte
 366              	.LVL33:
  90:Drivers/BSP/mpu6050/mpu6050_platform.c **** 
  91:Drivers/BSP/mpu6050/mpu6050_platform.c ****     if (status_int != 0)
 367              		.loc 1 91 5 is_stmt 1 view .LVU73
 368              		.loc 1 91 8 is_stmt 0 view .LVU74
 369 0008 00B9     		cbnz	r0, .L18
 370              	.LVL34:
 371              	.L15:
  92:Drivers/BSP/mpu6050/mpu6050_platform.c ****         error = MPU6050_ERROR_CONTROL_INTERFACE;
  93:Drivers/BSP/mpu6050/mpu6050_platform.c **** 
  94:Drivers/BSP/mpu6050/mpu6050_platform.c ****     return error;
 372              		.loc 1 94 5 is_stmt 1 view .LVU75
  95:Drivers/BSP/mpu6050/mpu6050_platform.c **** }
 373              		.loc 1 95 1 is_stmt 0 view .LVU76
 374 000a 08BD     		pop	{r3, pc}
 375              	.LVL35:
 376              	.L18:
  92:Drivers/BSP/mpu6050/mpu6050_platform.c ****         error = MPU6050_ERROR_CONTROL_INTERFACE;
 377              		.loc 1 92 15 view .LVU77
 378 000c 0320     		movs	r0, #3
 379              	.LVL36:
  92:Drivers/BSP/mpu6050/mpu6050_platform.c ****         error = MPU6050_ERROR_CONTROL_INTERFACE;
 380              		.loc 1 92 15 view .LVU78
 381 000e FCE7     		b	.L15
ARM GAS  C:\Users\jsauerer\AppData\Local\Temp\ccrZpiNJ.s 			page 10


 382              		.cfi_endproc
 383              	.LFE115:
 385              		.section	.text.MPU6050_ReadBytes,"ax",%progbits
 386              		.align	1
 387              		.global	MPU6050_ReadBytes
 388              		.syntax unified
 389              		.thumb
 390              		.thumb_func
 391              		.fpu softvfp
 393              	MPU6050_ReadBytes:
 394              	.LVL37:
 395              	.LFB116:
  96:Drivers/BSP/mpu6050/mpu6050_platform.c **** 
  97:Drivers/BSP/mpu6050/mpu6050_platform.c **** MPU6050_Error MPU6050_ReadBytes(MPU6050_DEV dev, uint8_t index, uint8_t *pdata, uint32_t count)
  98:Drivers/BSP/mpu6050/mpu6050_platform.c **** {
 396              		.loc 1 98 1 is_stmt 1 view -0
 397              		.cfi_startproc
 398              		@ args = 0, pretend = 0, frame = 0
 399              		@ frame_needed = 0, uses_anonymous_args = 0
 400              		.loc 1 98 1 is_stmt 0 view .LVU80
 401 0000 10B5     		push	{r4, lr}
 402              	.LCFI9:
 403              		.cfi_def_cfa_offset 8
 404              		.cfi_offset 4, -8
 405              		.cfi_offset 14, -4
  99:Drivers/BSP/mpu6050/mpu6050_platform.c ****     MPU6050_Error error = MPU6050_ERROR_NONE;
 406              		.loc 1 99 5 is_stmt 1 view .LVU81
 407              	.LVL38:
 100:Drivers/BSP/mpu6050/mpu6050_platform.c ****     int32_t status_int = 0;
 408              		.loc 1 100 5 view .LVU82
 101:Drivers/BSP/mpu6050/mpu6050_platform.c **** 
 102:Drivers/BSP/mpu6050/mpu6050_platform.c ****     if (count >= MPU6050_MAX_I2C_XFER_SIZE)
 409              		.loc 1 102 5 view .LVU83
 410              		.loc 1 102 8 is_stmt 0 view .LVU84
 411 0002 3F2B     		cmp	r3, #63
 412 0004 07D8     		bhi	.L22
  99:Drivers/BSP/mpu6050/mpu6050_platform.c ****     int32_t status_int = 0;
 413              		.loc 1 99 19 view .LVU85
 414 0006 0024     		movs	r4, #0
 415              	.L20:
 416              	.LVL39:
 103:Drivers/BSP/mpu6050/mpu6050_platform.c ****     {
 104:Drivers/BSP/mpu6050/mpu6050_platform.c ****         error = MPU6050_ERROR_INVALID_PARAMS;
 105:Drivers/BSP/mpu6050/mpu6050_platform.c ****     }
 106:Drivers/BSP/mpu6050/mpu6050_platform.c **** 
 107:Drivers/BSP/mpu6050/mpu6050_platform.c ****     status_int = HW_I2C_ReadBytes(dev->I2cDevAddr, index, pdata, count);
 417              		.loc 1 107 5 is_stmt 1 view .LVU86
 418              		.loc 1 107 18 is_stmt 0 view .LVU87
 419 0008 DBB2     		uxtb	r3, r3
 420              	.LVL40:
 421              		.loc 1 107 18 view .LVU88
 422 000a 8078     		ldrb	r0, [r0, #2]	@ zero_extendqisi2
 423              	.LVL41:
 424              		.loc 1 107 18 view .LVU89
 425 000c FFF7FEFF 		bl	HW_I2C_ReadBytes
 426              	.LVL42:
 108:Drivers/BSP/mpu6050/mpu6050_platform.c **** 
ARM GAS  C:\Users\jsauerer\AppData\Local\Temp\ccrZpiNJ.s 			page 11


 109:Drivers/BSP/mpu6050/mpu6050_platform.c ****     if (status_int != 0)
 427              		.loc 1 109 5 is_stmt 1 view .LVU90
 428              		.loc 1 109 8 is_stmt 0 view .LVU91
 429 0010 18B9     		cbnz	r0, .L25
 430              	.LVL43:
 431              	.L21:
 110:Drivers/BSP/mpu6050/mpu6050_platform.c ****         error = MPU6050_ERROR_CONTROL_INTERFACE;
 111:Drivers/BSP/mpu6050/mpu6050_platform.c **** 
 112:Drivers/BSP/mpu6050/mpu6050_platform.c ****     return error;
 432              		.loc 1 112 5 is_stmt 1 view .LVU92
 113:Drivers/BSP/mpu6050/mpu6050_platform.c **** }
 433              		.loc 1 113 1 is_stmt 0 view .LVU93
 434 0012 2046     		mov	r0, r4
 435              	.LVL44:
 436              		.loc 1 113 1 view .LVU94
 437 0014 10BD     		pop	{r4, pc}
 438              	.LVL45:
 439              	.L22:
 104:Drivers/BSP/mpu6050/mpu6050_platform.c ****     }
 440              		.loc 1 104 15 view .LVU95
 441 0016 0224     		movs	r4, #2
 442 0018 F6E7     		b	.L20
 443              	.LVL46:
 444              	.L25:
 110:Drivers/BSP/mpu6050/mpu6050_platform.c ****         error = MPU6050_ERROR_CONTROL_INTERFACE;
 445              		.loc 1 110 15 view .LVU96
 446 001a 0324     		movs	r4, #3
 447              	.LVL47:
 110:Drivers/BSP/mpu6050/mpu6050_platform.c ****         error = MPU6050_ERROR_CONTROL_INTERFACE;
 448              		.loc 1 110 15 view .LVU97
 449 001c F9E7     		b	.L21
 450              		.cfi_endproc
 451              	.LFE116:
 453              		.section	.text.MPU6050_ReadBit,"ax",%progbits
 454              		.align	1
 455              		.global	MPU6050_ReadBit
 456              		.syntax unified
 457              		.thumb
 458              		.thumb_func
 459              		.fpu softvfp
 461              	MPU6050_ReadBit:
 462              	.LVL48:
 463              	.LFB117:
 114:Drivers/BSP/mpu6050/mpu6050_platform.c **** 
 115:Drivers/BSP/mpu6050/mpu6050_platform.c **** MPU6050_Error MPU6050_ReadBit(MPU6050_DEV dev, uint8_t index, uint8_t *pdata, uint8_t bit)
 116:Drivers/BSP/mpu6050/mpu6050_platform.c **** {
 464              		.loc 1 116 1 is_stmt 1 view -0
 465              		.cfi_startproc
 466              		@ args = 0, pretend = 0, frame = 0
 467              		@ frame_needed = 0, uses_anonymous_args = 0
 468              		.loc 1 116 1 is_stmt 0 view .LVU99
 469 0000 08B5     		push	{r3, lr}
 470              	.LCFI10:
 471              		.cfi_def_cfa_offset 8
 472              		.cfi_offset 3, -8
 473              		.cfi_offset 14, -4
 117:Drivers/BSP/mpu6050/mpu6050_platform.c ****     MPU6050_Error error = MPU6050_ERROR_NONE;
ARM GAS  C:\Users\jsauerer\AppData\Local\Temp\ccrZpiNJ.s 			page 12


 474              		.loc 1 117 5 is_stmt 1 view .LVU100
 475              	.LVL49:
 118:Drivers/BSP/mpu6050/mpu6050_platform.c ****     int32_t status_int = 0;
 476              		.loc 1 118 5 view .LVU101
 119:Drivers/BSP/mpu6050/mpu6050_platform.c **** 
 120:Drivers/BSP/mpu6050/mpu6050_platform.c ****     status_int = HW_I2C_ReadBit(dev->I2cDevAddr, index, pdata, bit);
 477              		.loc 1 120 5 view .LVU102
 478              		.loc 1 120 18 is_stmt 0 view .LVU103
 479 0002 8078     		ldrb	r0, [r0, #2]	@ zero_extendqisi2
 480              	.LVL50:
 481              		.loc 1 120 18 view .LVU104
 482 0004 FFF7FEFF 		bl	HW_I2C_ReadBit
 483              	.LVL51:
 121:Drivers/BSP/mpu6050/mpu6050_platform.c **** 
 122:Drivers/BSP/mpu6050/mpu6050_platform.c ****     if (status_int != 0)
 484              		.loc 1 122 5 is_stmt 1 view .LVU105
 485              		.loc 1 122 8 is_stmt 0 view .LVU106
 486 0008 00B9     		cbnz	r0, .L30
 487              	.LVL52:
 488              	.L27:
 123:Drivers/BSP/mpu6050/mpu6050_platform.c ****         error = MPU6050_ERROR_CONTROL_INTERFACE;
 124:Drivers/BSP/mpu6050/mpu6050_platform.c **** 
 125:Drivers/BSP/mpu6050/mpu6050_platform.c ****     return error;
 489              		.loc 1 125 5 is_stmt 1 view .LVU107
 126:Drivers/BSP/mpu6050/mpu6050_platform.c **** }
 490              		.loc 1 126 1 is_stmt 0 view .LVU108
 491 000a 08BD     		pop	{r3, pc}
 492              	.LVL53:
 493              	.L30:
 123:Drivers/BSP/mpu6050/mpu6050_platform.c ****         error = MPU6050_ERROR_CONTROL_INTERFACE;
 494              		.loc 1 123 15 view .LVU109
 495 000c 0320     		movs	r0, #3
 496              	.LVL54:
 123:Drivers/BSP/mpu6050/mpu6050_platform.c ****         error = MPU6050_ERROR_CONTROL_INTERFACE;
 497              		.loc 1 123 15 view .LVU110
 498 000e FCE7     		b	.L27
 499              		.cfi_endproc
 500              	.LFE117:
 502              		.section	.text.MPU6050_ReadBits,"ax",%progbits
 503              		.align	1
 504              		.global	MPU6050_ReadBits
 505              		.syntax unified
 506              		.thumb
 507              		.thumb_func
 508              		.fpu softvfp
 510              	MPU6050_ReadBits:
 511              	.LVL55:
 512              	.LFB118:
 127:Drivers/BSP/mpu6050/mpu6050_platform.c **** MPU6050_Error MPU6050_ReadBits(MPU6050_DEV dev, uint8_t index, uint8_t *pdata, uint8_t bitStart, ui
 128:Drivers/BSP/mpu6050/mpu6050_platform.c **** {
 513              		.loc 1 128 1 is_stmt 1 view -0
 514              		.cfi_startproc
 515              		@ args = 4, pretend = 0, frame = 0
 516              		@ frame_needed = 0, uses_anonymous_args = 0
 517              		.loc 1 128 1 is_stmt 0 view .LVU112
 518 0000 10B5     		push	{r4, lr}
 519              	.LCFI11:
ARM GAS  C:\Users\jsauerer\AppData\Local\Temp\ccrZpiNJ.s 			page 13


 520              		.cfi_def_cfa_offset 8
 521              		.cfi_offset 4, -8
 522              		.cfi_offset 14, -4
 523 0002 82B0     		sub	sp, sp, #8
 524              	.LCFI12:
 525              		.cfi_def_cfa_offset 16
 129:Drivers/BSP/mpu6050/mpu6050_platform.c ****     MPU6050_Error error = MPU6050_ERROR_NONE;
 526              		.loc 1 129 5 is_stmt 1 view .LVU113
 527              	.LVL56:
 130:Drivers/BSP/mpu6050/mpu6050_platform.c ****     int32_t status_int = 0;
 528              		.loc 1 130 5 view .LVU114
 131:Drivers/BSP/mpu6050/mpu6050_platform.c **** 
 132:Drivers/BSP/mpu6050/mpu6050_platform.c ****     status_int = HW_I2C_ReadBits(dev->I2cDevAddr, index, pdata, bitStart, count);
 529              		.loc 1 132 5 view .LVU115
 530              		.loc 1 132 18 is_stmt 0 view .LVU116
 531 0004 8078     		ldrb	r0, [r0, #2]	@ zero_extendqisi2
 532              	.LVL57:
 533              		.loc 1 132 18 view .LVU117
 534 0006 9DF81040 		ldrb	r4, [sp, #16]	@ zero_extendqisi2
 535 000a 0094     		str	r4, [sp]
 536 000c FFF7FEFF 		bl	HW_I2C_ReadBits
 537              	.LVL58:
 133:Drivers/BSP/mpu6050/mpu6050_platform.c **** 
 134:Drivers/BSP/mpu6050/mpu6050_platform.c ****     if (status_int != 0)
 538              		.loc 1 134 5 is_stmt 1 view .LVU118
 539              		.loc 1 134 8 is_stmt 0 view .LVU119
 540 0010 08B9     		cbnz	r0, .L35
 541              	.LVL59:
 542              	.L32:
 135:Drivers/BSP/mpu6050/mpu6050_platform.c ****         error = MPU6050_ERROR_CONTROL_INTERFACE;
 136:Drivers/BSP/mpu6050/mpu6050_platform.c **** 
 137:Drivers/BSP/mpu6050/mpu6050_platform.c ****     return error;
 543              		.loc 1 137 5 is_stmt 1 view .LVU120
 138:Drivers/BSP/mpu6050/mpu6050_platform.c **** }
 544              		.loc 1 138 1 is_stmt 0 view .LVU121
 545 0012 02B0     		add	sp, sp, #8
 546              	.LCFI13:
 547              		.cfi_remember_state
 548              		.cfi_def_cfa_offset 8
 549              		@ sp needed
 550 0014 10BD     		pop	{r4, pc}
 551              	.LVL60:
 552              	.L35:
 553              	.LCFI14:
 554              		.cfi_restore_state
 135:Drivers/BSP/mpu6050/mpu6050_platform.c ****         error = MPU6050_ERROR_CONTROL_INTERFACE;
 555              		.loc 1 135 15 view .LVU122
 556 0016 0320     		movs	r0, #3
 557              	.LVL61:
 135:Drivers/BSP/mpu6050/mpu6050_platform.c ****         error = MPU6050_ERROR_CONTROL_INTERFACE;
 558              		.loc 1 135 15 view .LVU123
 559 0018 FBE7     		b	.L32
 560              		.cfi_endproc
 561              	.LFE118:
 563              		.section	.text.MPU6050_WriteByte,"ax",%progbits
 564              		.align	1
 565              		.global	MPU6050_WriteByte
ARM GAS  C:\Users\jsauerer\AppData\Local\Temp\ccrZpiNJ.s 			page 14


 566              		.syntax unified
 567              		.thumb
 568              		.thumb_func
 569              		.fpu softvfp
 571              	MPU6050_WriteByte:
 572              	.LVL62:
 573              	.LFB119:
 139:Drivers/BSP/mpu6050/mpu6050_platform.c **** 
 140:Drivers/BSP/mpu6050/mpu6050_platform.c **** MPU6050_Error MPU6050_WriteByte(MPU6050_DEV dev, uint8_t index, uint8_t data)
 141:Drivers/BSP/mpu6050/mpu6050_platform.c **** {
 574              		.loc 1 141 1 is_stmt 1 view -0
 575              		.cfi_startproc
 576              		@ args = 0, pretend = 0, frame = 0
 577              		@ frame_needed = 0, uses_anonymous_args = 0
 578              		.loc 1 141 1 is_stmt 0 view .LVU125
 579 0000 08B5     		push	{r3, lr}
 580              	.LCFI15:
 581              		.cfi_def_cfa_offset 8
 582              		.cfi_offset 3, -8
 583              		.cfi_offset 14, -4
 142:Drivers/BSP/mpu6050/mpu6050_platform.c ****     MPU6050_Error error = MPU6050_ERROR_NONE;
 584              		.loc 1 142 5 is_stmt 1 view .LVU126
 585              	.LVL63:
 143:Drivers/BSP/mpu6050/mpu6050_platform.c ****     int32_t status_int = 0;
 586              		.loc 1 143 5 view .LVU127
 144:Drivers/BSP/mpu6050/mpu6050_platform.c **** 
 145:Drivers/BSP/mpu6050/mpu6050_platform.c ****     status_int = HW_I2C_WriteByte(dev->I2cDevAddr, index, data);
 587              		.loc 1 145 5 view .LVU128
 588              		.loc 1 145 18 is_stmt 0 view .LVU129
 589 0002 8078     		ldrb	r0, [r0, #2]	@ zero_extendqisi2
 590              	.LVL64:
 591              		.loc 1 145 18 view .LVU130
 592 0004 FFF7FEFF 		bl	HW_I2C_WriteByte
 593              	.LVL65:
 146:Drivers/BSP/mpu6050/mpu6050_platform.c **** 
 147:Drivers/BSP/mpu6050/mpu6050_platform.c ****     if (status_int != 0)
 594              		.loc 1 147 5 is_stmt 1 view .LVU131
 595              		.loc 1 147 8 is_stmt 0 view .LVU132
 596 0008 00B9     		cbnz	r0, .L40
 597              	.LVL66:
 598              	.L37:
 148:Drivers/BSP/mpu6050/mpu6050_platform.c ****         error = MPU6050_ERROR_CONTROL_INTERFACE;
 149:Drivers/BSP/mpu6050/mpu6050_platform.c **** 
 150:Drivers/BSP/mpu6050/mpu6050_platform.c ****     return error;
 599              		.loc 1 150 5 is_stmt 1 view .LVU133
 151:Drivers/BSP/mpu6050/mpu6050_platform.c **** }
 600              		.loc 1 151 1 is_stmt 0 view .LVU134
 601 000a 08BD     		pop	{r3, pc}
 602              	.LVL67:
 603              	.L40:
 148:Drivers/BSP/mpu6050/mpu6050_platform.c ****         error = MPU6050_ERROR_CONTROL_INTERFACE;
 604              		.loc 1 148 15 view .LVU135
 605 000c 0320     		movs	r0, #3
 606              	.LVL68:
 148:Drivers/BSP/mpu6050/mpu6050_platform.c ****         error = MPU6050_ERROR_CONTROL_INTERFACE;
 607              		.loc 1 148 15 view .LVU136
 608 000e FCE7     		b	.L37
ARM GAS  C:\Users\jsauerer\AppData\Local\Temp\ccrZpiNJ.s 			page 15


 609              		.cfi_endproc
 610              	.LFE119:
 612              		.section	.text.MPU6050_WriteBytes,"ax",%progbits
 613              		.align	1
 614              		.global	MPU6050_WriteBytes
 615              		.syntax unified
 616              		.thumb
 617              		.thumb_func
 618              		.fpu softvfp
 620              	MPU6050_WriteBytes:
 621              	.LVL69:
 622              	.LFB120:
 152:Drivers/BSP/mpu6050/mpu6050_platform.c **** 
 153:Drivers/BSP/mpu6050/mpu6050_platform.c **** MPU6050_Error MPU6050_WriteBytes(MPU6050_DEV dev, uint8_t index, uint8_t *pdata, uint32_t count)
 154:Drivers/BSP/mpu6050/mpu6050_platform.c **** {
 623              		.loc 1 154 1 is_stmt 1 view -0
 624              		.cfi_startproc
 625              		@ args = 0, pretend = 0, frame = 0
 626              		@ frame_needed = 0, uses_anonymous_args = 0
 627              		.loc 1 154 1 is_stmt 0 view .LVU138
 628 0000 10B5     		push	{r4, lr}
 629              	.LCFI16:
 630              		.cfi_def_cfa_offset 8
 631              		.cfi_offset 4, -8
 632              		.cfi_offset 14, -4
 155:Drivers/BSP/mpu6050/mpu6050_platform.c ****     MPU6050_Error error = MPU6050_ERROR_NONE;
 633              		.loc 1 155 5 is_stmt 1 view .LVU139
 634              	.LVL70:
 156:Drivers/BSP/mpu6050/mpu6050_platform.c ****     int32_t status_int = 0;
 635              		.loc 1 156 5 view .LVU140
 157:Drivers/BSP/mpu6050/mpu6050_platform.c **** 
 158:Drivers/BSP/mpu6050/mpu6050_platform.c ****     if (count >= MPU6050_MAX_I2C_XFER_SIZE)
 636              		.loc 1 158 5 view .LVU141
 637              		.loc 1 158 8 is_stmt 0 view .LVU142
 638 0002 3F2B     		cmp	r3, #63
 639 0004 07D8     		bhi	.L44
 155:Drivers/BSP/mpu6050/mpu6050_platform.c ****     int32_t status_int = 0;
 640              		.loc 1 155 19 view .LVU143
 641 0006 0024     		movs	r4, #0
 642              	.L42:
 643              	.LVL71:
 159:Drivers/BSP/mpu6050/mpu6050_platform.c ****     {
 160:Drivers/BSP/mpu6050/mpu6050_platform.c ****         error = MPU6050_ERROR_INVALID_PARAMS;
 161:Drivers/BSP/mpu6050/mpu6050_platform.c ****     }
 162:Drivers/BSP/mpu6050/mpu6050_platform.c **** 
 163:Drivers/BSP/mpu6050/mpu6050_platform.c ****     status_int = HW_I2C_WriteBytes(dev->I2cDevAddr, index, pdata, count);
 644              		.loc 1 163 5 is_stmt 1 view .LVU144
 645              		.loc 1 163 18 is_stmt 0 view .LVU145
 646 0008 DBB2     		uxtb	r3, r3
 647              	.LVL72:
 648              		.loc 1 163 18 view .LVU146
 649 000a 8078     		ldrb	r0, [r0, #2]	@ zero_extendqisi2
 650              	.LVL73:
 651              		.loc 1 163 18 view .LVU147
 652 000c FFF7FEFF 		bl	HW_I2C_WriteBytes
 653              	.LVL74:
 164:Drivers/BSP/mpu6050/mpu6050_platform.c **** 
ARM GAS  C:\Users\jsauerer\AppData\Local\Temp\ccrZpiNJ.s 			page 16


 165:Drivers/BSP/mpu6050/mpu6050_platform.c ****     if (status_int != 0)
 654              		.loc 1 165 5 is_stmt 1 view .LVU148
 655              		.loc 1 165 8 is_stmt 0 view .LVU149
 656 0010 18B9     		cbnz	r0, .L47
 657              	.LVL75:
 658              	.L43:
 166:Drivers/BSP/mpu6050/mpu6050_platform.c ****         error = MPU6050_ERROR_CONTROL_INTERFACE;
 167:Drivers/BSP/mpu6050/mpu6050_platform.c **** 
 168:Drivers/BSP/mpu6050/mpu6050_platform.c ****     return error;
 659              		.loc 1 168 5 is_stmt 1 view .LVU150
 169:Drivers/BSP/mpu6050/mpu6050_platform.c **** }
 660              		.loc 1 169 1 is_stmt 0 view .LVU151
 661 0012 2046     		mov	r0, r4
 662              	.LVL76:
 663              		.loc 1 169 1 view .LVU152
 664 0014 10BD     		pop	{r4, pc}
 665              	.LVL77:
 666              	.L44:
 160:Drivers/BSP/mpu6050/mpu6050_platform.c ****     }
 667              		.loc 1 160 15 view .LVU153
 668 0016 0224     		movs	r4, #2
 669 0018 F6E7     		b	.L42
 670              	.LVL78:
 671              	.L47:
 166:Drivers/BSP/mpu6050/mpu6050_platform.c ****         error = MPU6050_ERROR_CONTROL_INTERFACE;
 672              		.loc 1 166 15 view .LVU154
 673 001a 0324     		movs	r4, #3
 674              	.LVL79:
 166:Drivers/BSP/mpu6050/mpu6050_platform.c ****         error = MPU6050_ERROR_CONTROL_INTERFACE;
 675              		.loc 1 166 15 view .LVU155
 676 001c F9E7     		b	.L43
 677              		.cfi_endproc
 678              	.LFE120:
 680              		.section	.text.MPU6050_WriteBit,"ax",%progbits
 681              		.align	1
 682              		.global	MPU6050_WriteBit
 683              		.syntax unified
 684              		.thumb
 685              		.thumb_func
 686              		.fpu softvfp
 688              	MPU6050_WriteBit:
 689              	.LVL80:
 690              	.LFB121:
 170:Drivers/BSP/mpu6050/mpu6050_platform.c **** 
 171:Drivers/BSP/mpu6050/mpu6050_platform.c **** MPU6050_Error MPU6050_WriteBit(MPU6050_DEV dev, uint8_t index, uint8_t bit, uint8_t data)
 172:Drivers/BSP/mpu6050/mpu6050_platform.c **** {
 691              		.loc 1 172 1 is_stmt 1 view -0
 692              		.cfi_startproc
 693              		@ args = 0, pretend = 0, frame = 0
 694              		@ frame_needed = 0, uses_anonymous_args = 0
 695              		.loc 1 172 1 is_stmt 0 view .LVU157
 696 0000 08B5     		push	{r3, lr}
 697              	.LCFI17:
 698              		.cfi_def_cfa_offset 8
 699              		.cfi_offset 3, -8
 700              		.cfi_offset 14, -4
 173:Drivers/BSP/mpu6050/mpu6050_platform.c ****     MPU6050_Error error = MPU6050_ERROR_NONE;
ARM GAS  C:\Users\jsauerer\AppData\Local\Temp\ccrZpiNJ.s 			page 17


 701              		.loc 1 173 5 is_stmt 1 view .LVU158
 702              	.LVL81:
 174:Drivers/BSP/mpu6050/mpu6050_platform.c ****     int32_t status_int = 0;
 703              		.loc 1 174 5 view .LVU159
 175:Drivers/BSP/mpu6050/mpu6050_platform.c **** 
 176:Drivers/BSP/mpu6050/mpu6050_platform.c ****     status_int = HW_I2C_WriteBit(dev->I2cDevAddr, index, bit, data);
 704              		.loc 1 176 5 view .LVU160
 705              		.loc 1 176 18 is_stmt 0 view .LVU161
 706 0002 8078     		ldrb	r0, [r0, #2]	@ zero_extendqisi2
 707              	.LVL82:
 708              		.loc 1 176 18 view .LVU162
 709 0004 FFF7FEFF 		bl	HW_I2C_WriteBit
 710              	.LVL83:
 177:Drivers/BSP/mpu6050/mpu6050_platform.c **** 
 178:Drivers/BSP/mpu6050/mpu6050_platform.c ****     if (status_int != 0)
 711              		.loc 1 178 5 is_stmt 1 view .LVU163
 712              		.loc 1 178 8 is_stmt 0 view .LVU164
 713 0008 00B9     		cbnz	r0, .L52
 714              	.LVL84:
 715              	.L49:
 179:Drivers/BSP/mpu6050/mpu6050_platform.c ****         error = MPU6050_ERROR_CONTROL_INTERFACE;
 180:Drivers/BSP/mpu6050/mpu6050_platform.c **** 
 181:Drivers/BSP/mpu6050/mpu6050_platform.c ****     return error;
 716              		.loc 1 181 5 is_stmt 1 view .LVU165
 182:Drivers/BSP/mpu6050/mpu6050_platform.c **** }
 717              		.loc 1 182 1 is_stmt 0 view .LVU166
 718 000a 08BD     		pop	{r3, pc}
 719              	.LVL85:
 720              	.L52:
 179:Drivers/BSP/mpu6050/mpu6050_platform.c ****         error = MPU6050_ERROR_CONTROL_INTERFACE;
 721              		.loc 1 179 15 view .LVU167
 722 000c 0320     		movs	r0, #3
 723              	.LVL86:
 179:Drivers/BSP/mpu6050/mpu6050_platform.c ****         error = MPU6050_ERROR_CONTROL_INTERFACE;
 724              		.loc 1 179 15 view .LVU168
 725 000e FCE7     		b	.L49
 726              		.cfi_endproc
 727              	.LFE121:
 729              		.section	.text.MPU6050_WriteBits,"ax",%progbits
 730              		.align	1
 731              		.global	MPU6050_WriteBits
 732              		.syntax unified
 733              		.thumb
 734              		.thumb_func
 735              		.fpu softvfp
 737              	MPU6050_WriteBits:
 738              	.LVL87:
 739              	.LFB122:
 183:Drivers/BSP/mpu6050/mpu6050_platform.c **** 
 184:Drivers/BSP/mpu6050/mpu6050_platform.c **** MPU6050_Error MPU6050_WriteBits(MPU6050_DEV dev, uint8_t index, uint8_t bitStart, uint8_t count, ui
 185:Drivers/BSP/mpu6050/mpu6050_platform.c **** {
 740              		.loc 1 185 1 is_stmt 1 view -0
 741              		.cfi_startproc
 742              		@ args = 4, pretend = 0, frame = 0
 743              		@ frame_needed = 0, uses_anonymous_args = 0
 744              		.loc 1 185 1 is_stmt 0 view .LVU170
 745 0000 10B5     		push	{r4, lr}
ARM GAS  C:\Users\jsauerer\AppData\Local\Temp\ccrZpiNJ.s 			page 18


 746              	.LCFI18:
 747              		.cfi_def_cfa_offset 8
 748              		.cfi_offset 4, -8
 749              		.cfi_offset 14, -4
 750 0002 82B0     		sub	sp, sp, #8
 751              	.LCFI19:
 752              		.cfi_def_cfa_offset 16
 186:Drivers/BSP/mpu6050/mpu6050_platform.c ****     MPU6050_Error error = MPU6050_ERROR_NONE;
 753              		.loc 1 186 5 is_stmt 1 view .LVU171
 754              	.LVL88:
 187:Drivers/BSP/mpu6050/mpu6050_platform.c ****     int32_t status_int = 0;
 755              		.loc 1 187 5 view .LVU172
 188:Drivers/BSP/mpu6050/mpu6050_platform.c **** 
 189:Drivers/BSP/mpu6050/mpu6050_platform.c ****     if (count >= MPU6050_MAX_I2C_XFER_SIZE)
 756              		.loc 1 189 5 view .LVU173
 757              		.loc 1 189 8 is_stmt 0 view .LVU174
 758 0004 3F2B     		cmp	r3, #63
 759 0006 0BD8     		bhi	.L56
 186:Drivers/BSP/mpu6050/mpu6050_platform.c ****     int32_t status_int = 0;
 760              		.loc 1 186 19 view .LVU175
 761 0008 0024     		movs	r4, #0
 762              	.L54:
 763              	.LVL89:
 190:Drivers/BSP/mpu6050/mpu6050_platform.c ****     {
 191:Drivers/BSP/mpu6050/mpu6050_platform.c ****         error = MPU6050_ERROR_INVALID_PARAMS;
 192:Drivers/BSP/mpu6050/mpu6050_platform.c ****     }
 193:Drivers/BSP/mpu6050/mpu6050_platform.c **** 
 194:Drivers/BSP/mpu6050/mpu6050_platform.c ****     status_int = HW_I2C_WriteBits(dev->I2cDevAddr, index, data, bitStart, count);
 764              		.loc 1 194 5 is_stmt 1 view .LVU176
 765              		.loc 1 194 18 is_stmt 0 view .LVU177
 766 000a 0093     		str	r3, [sp]
 767 000c 1346     		mov	r3, r2
 768              	.LVL90:
 769              		.loc 1 194 18 view .LVU178
 770 000e 9DF81020 		ldrb	r2, [sp, #16]	@ zero_extendqisi2
 771              	.LVL91:
 772              		.loc 1 194 18 view .LVU179
 773 0012 8078     		ldrb	r0, [r0, #2]	@ zero_extendqisi2
 774              	.LVL92:
 775              		.loc 1 194 18 view .LVU180
 776 0014 FFF7FEFF 		bl	HW_I2C_WriteBits
 777              	.LVL93:
 195:Drivers/BSP/mpu6050/mpu6050_platform.c **** 
 196:Drivers/BSP/mpu6050/mpu6050_platform.c ****     if (status_int != 0)
 778              		.loc 1 196 5 is_stmt 1 view .LVU181
 779              		.loc 1 196 8 is_stmt 0 view .LVU182
 780 0018 20B9     		cbnz	r0, .L59
 781              	.LVL94:
 782              	.L55:
 197:Drivers/BSP/mpu6050/mpu6050_platform.c ****         error = MPU6050_ERROR_CONTROL_INTERFACE;
 198:Drivers/BSP/mpu6050/mpu6050_platform.c **** 
 199:Drivers/BSP/mpu6050/mpu6050_platform.c ****     return error;
 783              		.loc 1 199 5 is_stmt 1 view .LVU183
 200:Drivers/BSP/mpu6050/mpu6050_platform.c **** }...
 784              		.loc 1 200 1 is_stmt 0 view .LVU184
 785 001a 2046     		mov	r0, r4
 786              	.LVL95:
ARM GAS  C:\Users\jsauerer\AppData\Local\Temp\ccrZpiNJ.s 			page 19


 787              		.loc 1 200 1 view .LVU185
 788 001c 02B0     		add	sp, sp, #8
 789              	.LCFI20:
 790              		.cfi_remember_state
 791              		.cfi_def_cfa_offset 8
 792              		@ sp needed
 793 001e 10BD     		pop	{r4, pc}
 794              	.LVL96:
 795              	.L56:
 796              	.LCFI21:
 797              		.cfi_restore_state
 191:Drivers/BSP/mpu6050/mpu6050_platform.c ****         error = MPU6050_ERROR_INVALID_PARAMS;
 798              		.loc 1 191 15 view .LVU186
 799 0020 0224     		movs	r4, #2
 800 0022 F2E7     		b	.L54
 801              	.LVL97:
 802              	.L59:
 197:Drivers/BSP/mpu6050/mpu6050_platform.c ****         error = MPU6050_ERROR_CONTROL_INTERFACE;
 803              		.loc 1 197 15 view .LVU187
 804 0024 0324     		movs	r4, #3
 805              	.LVL98:
 197:Drivers/BSP/mpu6050/mpu6050_platform.c ****         error = MPU6050_ERROR_CONTROL_INTERFACE;
 806              		.loc 1 197 15 view .LVU188
 807 0026 F8E7     		b	.L55
 808              		.cfi_endproc
 809              	.LFE122:
 811              		.comm	MPU6050Dev,8,4
 812              		.text
 813              	.Letext0:
 814              		.file 2 "c:\\vsarm\\armcc\\arm-none-eabi\\include\\machine\\_default_types.h"
 815              		.file 3 "c:\\vsarm\\armcc\\arm-none-eabi\\include\\sys\\_stdint.h"
 816              		.file 4 "Drivers/BSP/mpu6050/mpu6050_def.h"
 817              		.file 5 "c:\\vsarm\\armcc\\arm-none-eabi\\include\\sys\\lock.h"
 818              		.file 6 "c:\\vsarm\\armcc\\arm-none-eabi\\include\\sys\\_types.h"
 819              		.file 7 "c:\\vsarm\\armcc\\lib\\gcc\\arm-none-eabi\\9.2.1\\include\\stddef.h"
 820              		.file 8 "c:\\vsarm\\armcc\\arm-none-eabi\\include\\sys\\reent.h"
 821              		.file 9 "c:\\vsarm\\armcc\\arm-none-eabi\\include\\math.h"
 822              		.file 10 "Drivers/CMSIS/Include/core_cm3.h"
 823              		.file 11 "Drivers/CMSIS/Device/ST/STM32F1xx/Include/system_stm32f1xx.h"
 824              		.file 12 "Drivers/CMSIS/Device/ST/STM32F1xx/Include/stm32f103xb.h"
 825              		.file 13 "Drivers/STM32F1xx_HAL_Driver/Inc/stm32f1xx_hal_def.h"
 826              		.file 14 "Drivers/STM32F1xx_HAL_Driver/Inc/stm32f1xx_hal_gpio.h"
 827              		.file 15 "Drivers/STM32F1xx_HAL_Driver/Inc/stm32f1xx_hal_dma.h"
 828              		.file 16 "Drivers/STM32F1xx_HAL_Driver/Inc/stm32f1xx_hal_i2c.h"
 829              		.file 17 "Drivers/STM32F1xx_HAL_Driver/Inc/stm32f1xx_hal.h"
 830              		.file 18 "App/Inc/hw_gpio.h"
 831              		.file 19 "App/Inc/hw_i2c.h"
 832              		.file 20 "Drivers/BSP/mpu6050/mpu6050_platform.h"
 833              		.file 21 "Drivers/BSP/mpu6050/mpu6050.h"
ARM GAS  C:\Users\jsauerer\AppData\Local\Temp\ccrZpiNJ.s 			page 20

