ARM GAS  C:\Users\jsauerer\AppData\Local\Temp\ccGp3CMg.s 			page 1


   1              		.cpu cortex-m3
   2              		.eabi_attribute 20, 1
   3              		.eabi_attribute 21, 1
   4              		.eabi_attribute 23, 3
   5              		.eabi_attribute 24, 1
   6              		.eabi_attribute 25, 1
   7              		.eabi_attribute 26, 1
   8              		.eabi_attribute 30, 1
   9              		.eabi_attribute 34, 1
  10              		.eabi_attribute 18, 4
  11              		.file	"stm32f1xx_hw_conf.c"
  12              		.text
  13              	.Ltext0:
  14              		.cfi_sections	.debug_frame
  15              		.section	.text.HW_Init,"ax",%progbits
  16              		.align	1
  17              		.global	HW_Init
  18              		.arch armv7-m
  19              		.syntax unified
  20              		.thumb
  21              		.thumb_func
  22              		.fpu softvfp
  24              	HW_Init:
  25              	.LFB111:
  26              		.file 1 "Core/Src/stm32f1xx_hw_conf.c"
   1:Core/Src/stm32f1xx_hw_conf.c **** #include "hw.h"
   2:Core/Src/stm32f1xx_hw_conf.c **** #include "bsp.h"
   3:Core/Src/stm32f1xx_hw_conf.c **** 
   4:Core/Src/stm32f1xx_hw_conf.c **** /*!
   5:Core/Src/stm32f1xx_hw_conf.c ****  * Flag to indicate if the MCU is Initialized
   6:Core/Src/stm32f1xx_hw_conf.c ****  */
   7:Core/Src/stm32f1xx_hw_conf.c **** static bool McuInitialized = false;
   8:Core/Src/stm32f1xx_hw_conf.c **** 
   9:Core/Src/stm32f1xx_hw_conf.c **** /**
  10:Core/Src/stm32f1xx_hw_conf.c ****   * @brief This function initializes the hardware
  11:Core/Src/stm32f1xx_hw_conf.c ****   * @param None
  12:Core/Src/stm32f1xx_hw_conf.c ****   * @retval None
  13:Core/Src/stm32f1xx_hw_conf.c ****   */
  14:Core/Src/stm32f1xx_hw_conf.c **** void HW_Init(void)
  15:Core/Src/stm32f1xx_hw_conf.c **** {
  27              		.loc 1 15 1 view -0
  28              		.cfi_startproc
  29              		@ args = 0, pretend = 0, frame = 0
  30              		@ frame_needed = 0, uses_anonymous_args = 0
  31 0000 08B5     		push	{r3, lr}
  32              	.LCFI0:
  33              		.cfi_def_cfa_offset 8
  34              		.cfi_offset 3, -8
  35              		.cfi_offset 14, -4
  16:Core/Src/stm32f1xx_hw_conf.c ****   if (McuInitialized == false)
  36              		.loc 1 16 3 view .LVU1
  37              		.loc 1 16 22 is_stmt 0 view .LVU2
  38 0002 084B     		ldr	r3, .L5
  39 0004 1B78     		ldrb	r3, [r3]	@ zero_extendqisi2
  40              		.loc 1 16 6 view .LVU3
  41 0006 03B1     		cbz	r3, .L4
  42              	.L1:
ARM GAS  C:\Users\jsauerer\AppData\Local\Temp\ccGp3CMg.s 			page 2


  17:Core/Src/stm32f1xx_hw_conf.c ****   {
  18:Core/Src/stm32f1xx_hw_conf.c ****     HW_TIMER_Init();
  19:Core/Src/stm32f1xx_hw_conf.c ****     //HW_UART_Init();
  20:Core/Src/stm32f1xx_hw_conf.c **** 
  21:Core/Src/stm32f1xx_hw_conf.c ****     HW_SPI_Init();
  22:Core/Src/stm32f1xx_hw_conf.c **** 
  23:Core/Src/stm32f1xx_hw_conf.c ****     HW_I2C_Init();
  24:Core/Src/stm32f1xx_hw_conf.c **** 
  25:Core/Src/stm32f1xx_hw_conf.c ****     BSP_sensor_Init();
  26:Core/Src/stm32f1xx_hw_conf.c **** 
  27:Core/Src/stm32f1xx_hw_conf.c ****     McuInitialized = true;
  28:Core/Src/stm32f1xx_hw_conf.c ****   }
  29:Core/Src/stm32f1xx_hw_conf.c **** }
  43              		.loc 1 29 1 view .LVU4
  44 0008 08BD     		pop	{r3, pc}
  45              	.L4:
  18:Core/Src/stm32f1xx_hw_conf.c ****     //HW_UART_Init();
  46              		.loc 1 18 5 is_stmt 1 view .LVU5
  47 000a FFF7FEFF 		bl	HW_TIMER_Init
  48              	.LVL0:
  21:Core/Src/stm32f1xx_hw_conf.c **** 
  49              		.loc 1 21 5 view .LVU6
  50 000e FFF7FEFF 		bl	HW_SPI_Init
  51              	.LVL1:
  23:Core/Src/stm32f1xx_hw_conf.c **** 
  52              		.loc 1 23 5 view .LVU7
  53 0012 FFF7FEFF 		bl	HW_I2C_Init
  54              	.LVL2:
  25:Core/Src/stm32f1xx_hw_conf.c **** 
  55              		.loc 1 25 5 view .LVU8
  56 0016 FFF7FEFF 		bl	BSP_sensor_Init
  57              	.LVL3:
  27:Core/Src/stm32f1xx_hw_conf.c ****   }
  58              		.loc 1 27 5 view .LVU9
  27:Core/Src/stm32f1xx_hw_conf.c ****   }
  59              		.loc 1 27 20 is_stmt 0 view .LVU10
  60 001a 024B     		ldr	r3, .L5
  61 001c 0122     		movs	r2, #1
  62 001e 1A70     		strb	r2, [r3]
  63              		.loc 1 29 1 view .LVU11
  64 0020 F2E7     		b	.L1
  65              	.L6:
  66 0022 00BF     		.align	2
  67              	.L5:
  68 0024 00000000 		.word	.LANCHOR0
  69              		.cfi_endproc
  70              	.LFE111:
  72              		.section	.text.HW_DeInit,"ax",%progbits
  73              		.align	1
  74              		.global	HW_DeInit
  75              		.syntax unified
  76              		.thumb
  77              		.thumb_func
  78              		.fpu softvfp
  80              	HW_DeInit:
  81              	.LFB112:
  30:Core/Src/stm32f1xx_hw_conf.c **** 
ARM GAS  C:\Users\jsauerer\AppData\Local\Temp\ccGp3CMg.s 			page 3


  31:Core/Src/stm32f1xx_hw_conf.c **** /**
  32:Core/Src/stm32f1xx_hw_conf.c ****   * @brief This function Deinitializes the hardware
  33:Core/Src/stm32f1xx_hw_conf.c ****   * @param None
  34:Core/Src/stm32f1xx_hw_conf.c ****   * @retval None
  35:Core/Src/stm32f1xx_hw_conf.c ****   */
  36:Core/Src/stm32f1xx_hw_conf.c **** void HW_DeInit(void)
  37:Core/Src/stm32f1xx_hw_conf.c **** {
  82              		.loc 1 37 1 is_stmt 1 view -0
  83              		.cfi_startproc
  84              		@ args = 0, pretend = 0, frame = 0
  85              		@ frame_needed = 0, uses_anonymous_args = 0
  86 0000 08B5     		push	{r3, lr}
  87              	.LCFI1:
  88              		.cfi_def_cfa_offset 8
  89              		.cfi_offset 3, -8
  90              		.cfi_offset 14, -4
  38:Core/Src/stm32f1xx_hw_conf.c ****   HW_SPI_DeInit();
  91              		.loc 1 38 3 view .LVU13
  92 0002 FFF7FEFF 		bl	HW_SPI_DeInit
  93              	.LVL4:
  39:Core/Src/stm32f1xx_hw_conf.c **** 
  40:Core/Src/stm32f1xx_hw_conf.c ****   HW_SPI_DeInit();
  94              		.loc 1 40 3 view .LVU14
  95 0006 FFF7FEFF 		bl	HW_SPI_DeInit
  96              	.LVL5:
  41:Core/Src/stm32f1xx_hw_conf.c **** 
  42:Core/Src/stm32f1xx_hw_conf.c ****   McuInitialized = false;
  97              		.loc 1 42 3 view .LVU15
  98              		.loc 1 42 18 is_stmt 0 view .LVU16
  99 000a 024B     		ldr	r3, .L9
 100 000c 0022     		movs	r2, #0
 101 000e 1A70     		strb	r2, [r3]
  43:Core/Src/stm32f1xx_hw_conf.c **** }
 102              		.loc 1 43 1 view .LVU17
 103 0010 08BD     		pop	{r3, pc}
 104              	.L10:
 105 0012 00BF     		.align	2
 106              	.L9:
 107 0014 00000000 		.word	.LANCHOR0
 108              		.cfi_endproc
 109              	.LFE112:
 111              		.section	.text.SystemClock_Config,"ax",%progbits
 112              		.align	1
 113              		.global	SystemClock_Config
 114              		.syntax unified
 115              		.thumb
 116              		.thumb_func
 117              		.fpu softvfp
 119              	SystemClock_Config:
 120              	.LFB113:
  44:Core/Src/stm32f1xx_hw_conf.c **** /**
  45:Core/Src/stm32f1xx_hw_conf.c ****   * @brief System Clock Configuration
  46:Core/Src/stm32f1xx_hw_conf.c ****   * @retval None
  47:Core/Src/stm32f1xx_hw_conf.c ****   */
  48:Core/Src/stm32f1xx_hw_conf.c **** void SystemClock_Config(void)
  49:Core/Src/stm32f1xx_hw_conf.c **** {
 121              		.loc 1 49 1 is_stmt 1 view -0
ARM GAS  C:\Users\jsauerer\AppData\Local\Temp\ccGp3CMg.s 			page 4


 122              		.cfi_startproc
 123              		@ args = 0, pretend = 0, frame = 64
 124              		@ frame_needed = 0, uses_anonymous_args = 0
 125 0000 00B5     		push	{lr}
 126              	.LCFI2:
 127              		.cfi_def_cfa_offset 4
 128              		.cfi_offset 14, -4
 129 0002 91B0     		sub	sp, sp, #68
 130              	.LCFI3:
 131              		.cfi_def_cfa_offset 72
  50:Core/Src/stm32f1xx_hw_conf.c ****   RCC_OscInitTypeDef RCC_OscInitStruct = {0};
 132              		.loc 1 50 3 view .LVU19
 133              		.loc 1 50 22 is_stmt 0 view .LVU20
 134 0004 0023     		movs	r3, #0
 135 0006 0793     		str	r3, [sp, #28]
 136 0008 0893     		str	r3, [sp, #32]
 137 000a 0993     		str	r3, [sp, #36]
 138 000c 0C93     		str	r3, [sp, #48]
  51:Core/Src/stm32f1xx_hw_conf.c ****   RCC_ClkInitTypeDef RCC_ClkInitStruct = {0};
 139              		.loc 1 51 3 is_stmt 1 view .LVU21
 140              		.loc 1 51 22 is_stmt 0 view .LVU22
 141 000e 0193     		str	r3, [sp, #4]
 142 0010 0293     		str	r3, [sp, #8]
 143 0012 0393     		str	r3, [sp, #12]
 144 0014 0493     		str	r3, [sp, #16]
 145 0016 0593     		str	r3, [sp, #20]
  52:Core/Src/stm32f1xx_hw_conf.c **** 
  53:Core/Src/stm32f1xx_hw_conf.c ****   /** Initializes the CPU, AHB and APB busses clocks 
  54:Core/Src/stm32f1xx_hw_conf.c ****   */
  55:Core/Src/stm32f1xx_hw_conf.c ****   RCC_OscInitStruct.OscillatorType = RCC_OSCILLATORTYPE_HSI;
 146              		.loc 1 55 3 is_stmt 1 view .LVU23
 147              		.loc 1 55 36 is_stmt 0 view .LVU24
 148 0018 0222     		movs	r2, #2
 149 001a 0692     		str	r2, [sp, #24]
  56:Core/Src/stm32f1xx_hw_conf.c ****   RCC_OscInitStruct.HSIState = RCC_HSI_ON;
 150              		.loc 1 56 3 is_stmt 1 view .LVU25
 151              		.loc 1 56 30 is_stmt 0 view .LVU26
 152 001c 0121     		movs	r1, #1
 153 001e 0A91     		str	r1, [sp, #40]
  57:Core/Src/stm32f1xx_hw_conf.c ****   RCC_OscInitStruct.HSICalibrationValue = RCC_HSICALIBRATION_DEFAULT;
 154              		.loc 1 57 3 is_stmt 1 view .LVU27
 155              		.loc 1 57 41 is_stmt 0 view .LVU28
 156 0020 1021     		movs	r1, #16
 157 0022 0B91     		str	r1, [sp, #44]
  58:Core/Src/stm32f1xx_hw_conf.c ****   RCC_OscInitStruct.PLL.PLLState = RCC_PLL_ON;
 158              		.loc 1 58 3 is_stmt 1 view .LVU29
 159              		.loc 1 58 34 is_stmt 0 view .LVU30
 160 0024 0D92     		str	r2, [sp, #52]
  59:Core/Src/stm32f1xx_hw_conf.c ****   RCC_OscInitStruct.PLL.PLLSource = RCC_PLLSOURCE_HSI_DIV2;
 161              		.loc 1 59 3 is_stmt 1 view .LVU31
 162              		.loc 1 59 35 is_stmt 0 view .LVU32
 163 0026 0E93     		str	r3, [sp, #56]
  60:Core/Src/stm32f1xx_hw_conf.c ****   RCC_OscInitStruct.PLL.PLLMUL = RCC_PLL_MUL16;
 164              		.loc 1 60 3 is_stmt 1 view .LVU33
 165              		.loc 1 60 32 is_stmt 0 view .LVU34
 166 0028 4FF46013 		mov	r3, #3670016
 167 002c 0F93     		str	r3, [sp, #60]
ARM GAS  C:\Users\jsauerer\AppData\Local\Temp\ccGp3CMg.s 			page 5


  61:Core/Src/stm32f1xx_hw_conf.c ****   if (HAL_RCC_OscConfig(&RCC_OscInitStruct) != HAL_OK)
 168              		.loc 1 61 3 is_stmt 1 view .LVU35
 169              		.loc 1 61 7 is_stmt 0 view .LVU36
 170 002e 06A8     		add	r0, sp, #24
 171 0030 FFF7FEFF 		bl	HAL_RCC_OscConfig
 172              	.LVL6:
 173              		.loc 1 61 6 view .LVU37
 174 0034 80B9     		cbnz	r0, .L15
 175              	.L12:
  62:Core/Src/stm32f1xx_hw_conf.c ****   {
  63:Core/Src/stm32f1xx_hw_conf.c ****     Error_Handler();
  64:Core/Src/stm32f1xx_hw_conf.c ****   }
  65:Core/Src/stm32f1xx_hw_conf.c ****   /** Initializes the CPU, AHB and APB busses clocks 
  66:Core/Src/stm32f1xx_hw_conf.c ****   */
  67:Core/Src/stm32f1xx_hw_conf.c ****   RCC_ClkInitStruct.ClockType = RCC_CLOCKTYPE_HCLK | RCC_CLOCKTYPE_SYSCLK | RCC_CLOCKTYPE_PCLK1 | R
 176              		.loc 1 67 3 is_stmt 1 view .LVU38
 177              		.loc 1 67 31 is_stmt 0 view .LVU39
 178 0036 0F23     		movs	r3, #15
 179 0038 0193     		str	r3, [sp, #4]
  68:Core/Src/stm32f1xx_hw_conf.c ****   RCC_ClkInitStruct.SYSCLKSource = RCC_SYSCLKSOURCE_PLLCLK;
 180              		.loc 1 68 3 is_stmt 1 view .LVU40
 181              		.loc 1 68 34 is_stmt 0 view .LVU41
 182 003a 0221     		movs	r1, #2
 183 003c 0291     		str	r1, [sp, #8]
  69:Core/Src/stm32f1xx_hw_conf.c ****   RCC_ClkInitStruct.AHBCLKDivider = RCC_SYSCLK_DIV1;
 184              		.loc 1 69 3 is_stmt 1 view .LVU42
 185              		.loc 1 69 35 is_stmt 0 view .LVU43
 186 003e 0023     		movs	r3, #0
 187 0040 0393     		str	r3, [sp, #12]
  70:Core/Src/stm32f1xx_hw_conf.c ****   RCC_ClkInitStruct.APB1CLKDivider = RCC_HCLK_DIV2;
 188              		.loc 1 70 3 is_stmt 1 view .LVU44
 189              		.loc 1 70 36 is_stmt 0 view .LVU45
 190 0042 4FF48062 		mov	r2, #1024
 191 0046 0492     		str	r2, [sp, #16]
  71:Core/Src/stm32f1xx_hw_conf.c ****   RCC_ClkInitStruct.APB2CLKDivider = RCC_HCLK_DIV1;
 192              		.loc 1 71 3 is_stmt 1 view .LVU46
 193              		.loc 1 71 36 is_stmt 0 view .LVU47
 194 0048 0593     		str	r3, [sp, #20]
  72:Core/Src/stm32f1xx_hw_conf.c **** 
  73:Core/Src/stm32f1xx_hw_conf.c ****   if (HAL_RCC_ClockConfig(&RCC_ClkInitStruct, FLASH_LATENCY_2) != HAL_OK)
 195              		.loc 1 73 3 is_stmt 1 view .LVU48
 196              		.loc 1 73 7 is_stmt 0 view .LVU49
 197 004a 01A8     		add	r0, sp, #4
 198 004c FFF7FEFF 		bl	HAL_RCC_ClockConfig
 199              	.LVL7:
 200              		.loc 1 73 6 view .LVU50
 201 0050 28B9     		cbnz	r0, .L16
 202              	.L11:
  74:Core/Src/stm32f1xx_hw_conf.c ****   {
  75:Core/Src/stm32f1xx_hw_conf.c ****     Error_Handler();
  76:Core/Src/stm32f1xx_hw_conf.c ****   }
  77:Core/Src/stm32f1xx_hw_conf.c **** }...
 203              		.loc 1 77 1 view .LVU51
 204 0052 11B0     		add	sp, sp, #68
 205              	.LCFI4:
 206              		.cfi_remember_state
 207              		.cfi_def_cfa_offset 4
ARM GAS  C:\Users\jsauerer\AppData\Local\Temp\ccGp3CMg.s 			page 6


 208              		@ sp needed
 209 0054 5DF804FB 		ldr	pc, [sp], #4
 210              	.L15:
 211              	.LCFI5:
 212              		.cfi_restore_state
  63:Core/Src/stm32f1xx_hw_conf.c ****     Error_Handler();
 213              		.loc 1 63 5 is_stmt 1 view .LVU52
 214 0058 FFF7FEFF 		bl	Error_Handler
 215              	.LVL8:
 216 005c EBE7     		b	.L12
 217              	.L16:
  75:Core/Src/stm32f1xx_hw_conf.c ****     Error_Handler();
 218              		.loc 1 75 5 view .LVU53
 219 005e FFF7FEFF 		bl	Error_Handler
 220              	.LVL9:
 221              		.loc 1 77 1 is_stmt 0 view .LVU54
 222 0062 F6E7     		b	.L11
 223              		.cfi_endproc
 224              	.LFE113:
 226              		.section	.bss.McuInitialized,"aw",%nobits
 227              		.set	.LANCHOR0,. + 0
 230              	McuInitialized:
 231 0000 00       		.space	1
 232              		.text
 233              	.Letext0:
 234              		.file 2 "c:\\vsarm\\armcc\\arm-none-eabi\\include\\machine\\_default_types.h"
 235              		.file 3 "c:\\vsarm\\armcc\\arm-none-eabi\\include\\sys\\lock.h"
 236              		.file 4 "c:\\vsarm\\armcc\\arm-none-eabi\\include\\sys\\_types.h"
 237              		.file 5 "c:\\vsarm\\armcc\\lib\\gcc\\arm-none-eabi\\9.2.1\\include\\stddef.h"
 238              		.file 6 "c:\\vsarm\\armcc\\arm-none-eabi\\include\\sys\\reent.h"
 239              		.file 7 "c:\\vsarm\\armcc\\arm-none-eabi\\include\\math.h"
 240              		.file 8 "c:\\vsarm\\armcc\\arm-none-eabi\\include\\sys\\_stdint.h"
 241              		.file 9 "Drivers/CMSIS/Include/core_cm3.h"
 242              		.file 10 "Drivers/CMSIS/Device/ST/STM32F1xx/Include/system_stm32f1xx.h"
 243              		.file 11 "Drivers/CMSIS/Device/ST/STM32F1xx/Include/stm32f103xb.h"
 244              		.file 12 "Drivers/STM32F1xx_HAL_Driver/Inc/stm32f1xx_hal_def.h"
 245              		.file 13 "Drivers/STM32F1xx_HAL_Driver/Inc/stm32f1xx_hal_rcc.h"
 246              		.file 14 "Drivers/STM32F1xx_HAL_Driver/Inc/stm32f1xx_hal_rcc_ex.h"
 247              		.file 15 "Drivers/STM32F1xx_HAL_Driver/Inc/stm32f1xx_hal_dma.h"
 248              		.file 16 "Drivers/STM32F1xx_HAL_Driver/Inc/stm32f1xx_hal_i2c.h"
 249              		.file 17 "Drivers/STM32F1xx_HAL_Driver/Inc/stm32f1xx_hal.h"
 250              		.file 18 "App/Inc/hw_i2c.h"
 251              		.file 19 "App/Inc/hw_msp.h"
 252              		.file 20 "App/Inc/hw_spi.h"
 253              		.file 21 "App/Inc/hw_timer.h"
 254              		.file 22 "App/Inc/bsp.h"
ARM GAS  C:\Users\jsauerer\AppData\Local\Temp\ccGp3CMg.s 			page 7

